(dp0
S'2012'
p1
(dp2
S'COFFMAN, MICHAEL'
p3
(dp4
S'fec_name'
p5
VCOFFMAN, MICHAEL
p6
sS'office'
p7
VH
p8
sS'district'
p9
V06
p10
sS'fec_id'
p11
S'H8CO06138'
p12
sS'party'
p13
VREP
p14
sS'state_race'
p15
VCO
p16
ssS'CROOKS, DAVID'
p17
(dp18
g5
VCROOKS, DAVID L
p19
sg7
VH
p20
sg9
V08
p21
sg11
S'H2IN08094'
p22
sg13
VDEM
p23
sg15
VIN
p24
ssS'NEUMAN, MARK'
p25
(dp26
g5
VNEUMANN, MARK W
p27
sg7
VS
p28
sg9
V00
p29
sg11
S'S8WI00158'
p30
sg13
VREP
p31
sg15
VWI
p32
ssS'JOSH, MANDEL'
p33
(dp34
g5
VMANDEL, JOSH
p35
sg7
VS
p36
sg9
V00
p37
sg11
S'S2OH00170'
p38
sg13
VREP
p39
sg15
VOH
p40
ssS'KICINSKI, MICHAEL'
p41
(dp42
g5
VKICINSKI, MICHAEL J SR
p43
sg7
VH
p44
sg9
V22
p45
sg11
S'H2NY22154'
p46
sg13
VREP
p47
sg15
VNY
p48
ssS'MANCHIN, JOE'
p49
(dp50
g5
VMANCHIN, JOE III
p51
sg7
VS
p52
sg9
V00
p53
sg11
S'S0WV00090'
p54
sg13
VDEM
p55
sg15
VWV
p56
ssS'MARIA, CANTWELL'
p57
(dp58
g5
VCANTWELL, MARIA
p59
sg7
VS
p60
sg9
V00
p61
sg11
S'S8WA00194'
p62
sg13
VDEM
p63
sg15
VWA
p64
ssS'ROMNE, MITT'
p65
(dp66
g5
VROMNEY, MITT / RYAN, PAUL D.
p67
sg7
VP
p68
sg9
V00
p69
sg11
S'P80003353'
p70
sg13
VREP
p71
sg15
VUS
p72
ssS'GIBSON, CHRIS'
p73
(dp74
g5
VGIBSON, CHRISTOPHER P
p75
sg7
VH
p76
sg9
V19
p77
sg11
S'H0NY20095'
p78
sg13
VREP
p79
sg15
VNY
p80
ssS'YOUNG, BILL'
p81
(dp82
g5
VYOUNG, C W BILL
p83
sg7
VH
p84
sg9
V13
p85
sg11
S'H6FL06035'
p86
sg13
VREP
p87
sg15
VFL
p88
ssS'DELBENE, SUZAN KAY'
p89
(dp90
g5
VDELBENE, SUZAN K
p91
sg7
VH
p92
sg9
V01
p93
sg11
S'H0WA08046'
p94
sg13
VDEM
p95
sg15
VWA
p96
ssS'TRIVEDI, MANAN'
p97
(dp98
g5
VTRIVEDI, MANAN
p99
sg7
VH
p100
sg9
V06
p101
sg11
S'H0PA06084'
p102
sg13
VDEM
p103
sg15
VPA
p104
ssS'BASS, CHARLES'
p105
(dp106
g5
VBASS, CHARLES F.
p107
sg7
VH
p108
sg9
V02
p109
sg11
S'H0NH02017'
p110
sg13
VREP
p111
sg15
VNH
p112
ssS'WALSH, JOE'
p113
(dp114
g5
VWALSH, JOE
p115
sg7
VH
p116
sg9
V08
p117
sg11
S'H0IL08090'
p118
sg13
VREP
p119
sg15
VIL
p120
ssS'CANSECO, FRANCISCO RAUL QUICO'
p121
(dp122
g5
VCANSECO, FRANCISCO RAUL QUICO R.
p123
sg7
VH
p124
sg9
V23
p125
sg11
S'H4TX28046'
p126
sg13
VREP
p127
sg15
VTX
p128
ssS'HENSLEY, TERESA'
p129
(dp130
g5
VHENSLEY, TERESA
p131
sg7
VH
p132
sg9
V04
p133
sg11
S'H2MO04082'
p134
sg13
VDEM
p135
sg15
VMO
p136
ssS'TIERNEY, JOHN'
p137
(dp138
g5
VTIERNEY, JOHN F
p139
sg7
VH
p140
sg9
V06
p141
sg11
S'H4MA06033'
p142
sg13
VDEM
p143
sg15
VMA
p144
ssS'YOUNG, C.W "BILL'
p145
(dp146
g5
VYOUNG, C W BILL
p147
sg7
VH
p148
sg9
V13
p149
sg11
g86
sg13
VREP
p150
sg15
VFL
p151
ssS'SALDANA, LORI'
p152
(dp153
g5
VSALDANA, LORI
p154
sg7
VH
p155
sg9
V52
p156
sg11
S'H2CA52063'
p157
sg13
VDEM
p158
sg15
VCA
p159
ssS'RIGELL, SCOTT'
p160
(dp161
g5
VRIGELL, EDWARD SCOTT MR.
p162
sg7
VH
p163
sg9
V02
p164
sg11
S'H0VA02084'
p165
sg13
VREP
p166
sg15
VVA
p167
ssS'LATHAM, TOM'
p168
(dp169
g5
VLATHAM, THOMAS
p170
sg7
VH
p171
sg9
V03
p172
sg11
S'H4IA05102'
p173
sg13
VREP
p174
sg15
VIA
p175
ssS'DUFFY, SEAN'
p176
(dp177
g5
VDUFFY, SEAN
p178
sg7
VH
p179
sg9
V07
p180
sg11
S'H0WI07051'
p181
sg13
VREP
p182
sg15
VWI
p183
ssS'JOE, DONNELLY'
p184
(dp185
g5
VDONNELLY, JOSEPH S
p186
sg7
VS
p187
sg9
V00
p188
sg11
S'S2IN00091'
p189
sg13
VDEM
p190
sg15
VIN
p191
ssS'MALDONADO, ABEL'
p192
(dp193
g5
VMALDONADO, ABEL
p194
sg7
VH
p195
sg9
V24
p196
sg11
S'H2CA23106'
p197
sg13
VREP
p198
sg15
VCA
p199
ssS'FLAKE, JEFF'
p200
(dp201
g5
VFLAKE, JEFF
p202
sg7
VS
p203
sg9
V00
p204
sg11
S'S2AZ00141'
p205
sg13
VREP
p206
sg15
VAZ
p207
ssS'SHELLEY, BERKLEY'
p208
(dp209
g5
VBERKLEY, SHELLEY
p210
sg7
VS
p211
sg9
V00
p212
sg11
S'S2NV00209'
p213
sg13
VDEM
p214
sg15
VNV
p215
ssS'MCNERNEY, JERRY'
p216
(dp217
g5
VMCNERNEY, JERRY
p218
sg7
VH
p219
sg9
V09
p220
sg11
S'H4CA11081'
p221
sg13
VDEM
p222
sg15
VCA
p223
ssS'BOB, KERREY'
p224
(dp225
g5
VKERREY, J ROBERT
p226
sg7
VS
p227
sg9
V00
p228
sg11
S'S8NE00067'
p229
sg13
VDEM
p230
sg15
VNE
p231
ssS'CHRIS, MURPHY'
p232
(dp233
g5
VMURPHY, CHRISTOPHER S
p234
sg7
VS
p235
sg9
V00
p236
sg11
S'S2CT00132'
p237
sg13
VDEM
p238
sg15
VCT
p239
ssS'GERLACH, JIM'
p240
(dp241
g5
VGERLACH, JIM
p242
sg7
VH
p243
sg9
V06
p244
sg11
S'H2PA06114'
p245
sg13
VREP
p246
sg15
VPA
p247
ssS'VARGAS, JUAN'
p248
(dp249
g5
VVARGAS, JUAN C.
p250
sg7
VH
p251
sg9
V51
p252
sg11
S'H2CA50026'
p253
sg13
VDEM
p254
sg15
VCA
p255
ssS'FEINSTEIN, DIANNE'
p256
(dp257
g5
VFEINSTEIN, DIANNE
p258
sg7
VS
p259
sg9
V00
p260
sg11
S'S0CA00199'
p261
sg13
VDEM
p262
sg15
VCA
p263
ssS'ANGLE, SHARRON'
p264
(dp265
g5
VANGLE, SHARRON E
p266
sg7
VH
p267
sg9
V02
p268
sg11
S'H6NV02172'
p269
sg13
VREP
p270
sg15
VNV
p271
ssS'HURT, ROBERT'
p272
(dp273
g5
VHURT, ROBERT
p274
sg7
VH
p275
sg9
V05
p276
sg11
S'H0VA05095'
p277
sg13
VREP
p278
sg15
VVA
p279
ssS'BRUNNER, JOHN'
p280
(dp281
g5
VBRUNNER, JOHN
p282
sg7
VS
p283
sg9
V00
p284
sg11
S'S2MO00437'
p285
sg13
VREP
p286
sg15
VMO
p287
ssS'FITZPATRICK, JIM'
p288
(dp289
g5
VFITZPATRICK, MICHAEL J
p290
sg7
VH
p291
sg9
V01
p292
sg11
S'H0NY01160'
p293
sg13
VREP
p294
sg15
VNY
p295
ssS'BOUSTANY, CHARLES'
p296
(dp297
g5
VBOUSTANY, JR, CHARLES W.
p298
sg7
VH
p299
sg9
V03
p300
sg11
S'H4LA07029'
p301
sg13
VREP
p302
sg15
VLA
p303
ssS'MITT, ROMNEY'
p304
(dp305
g5
VROMNEY, MITT / RYAN, PAUL D.
p306
sg7
VP
p307
sg9
V00
p308
sg11
S'P80003353'
p309
sg13
VREP
p310
sg15
VUS
p311
ssS'ABEL, MALDONADO'
p312
(dp313
g5
VMALDONADO, ABEL
p314
sg7
VH
p315
sg9
V24
p316
sg11
S'H2CA23106'
p317
sg13
VREP
p318
sg15
VCA
p319
ssS'RENACCI, JIM'
p320
(dp321
g5
VRENACCI, JAMES B
p322
sg7
VH
p323
sg9
V16
p324
sg11
S'H0OH16097'
p325
sg13
VREP
p326
sg15
VOH
p327
ssS'PERRY, RICK'
p328
(dp329
g5
VPERRY, JAMES R (RICK)
p330
sg7
VP
p331
sg9
V00
p332
sg11
S'P20003281'
p333
sg13
VREP
p334
sg15
VUS
p335
ssS'MCLEOD, GLORIA NEGRETE'
p336
(dp337
g5
VMCLEOD, GLORIA NEGRETE
p338
sg7
VH
p339
sg9
V35
p340
sg11
S'H2CA35118'
p341
sg13
VDEM
p342
sg15
VCA
p343
ssS'PANTANO, ILARIO'
p344
(dp345
g5
VPANTANO, ILARIO
p346
sg7
VH
p347
sg9
V07
p348
sg11
S'H0NC07108'
p349
sg13
VREP
p350
sg15
VNC
p351
ssS'MARSHALL, KATE'
p352
(dp353
g5
VMARSHALL, KATE
p354
sg7
VH
p355
sg9
V02
p356
sg11
S'H2NV02247'
p357
sg13
VDEM
p358
sg15
VNV
p359
ssS'TIM, RYAN'
p360
(dp361
g5
VRYAN, TIMOTHY
p362
sg7
VH
p363
sg9
V13
p364
sg11
S'H2OH17109'
p365
sg13
VDEM
p366
sg15
VOH
p367
ssS'DEMINGS", "VAL'
p368
(dp369
g5
VDEMINGS, VALDEZ VAL
p370
sg7
VH
p371
sg9
V10
p372
sg11
S'H2FL08063'
p373
sg13
VDEM
p374
sg15
VFL
p375
ssS'WICKER, ROGER'
p376
(dp377
g5
VWICKER, ROGER F
p378
sg7
VS
p379
sg9
V00
p380
sg11
S'S8MS00196'
p381
sg13
VREP
p382
sg15
VMS
p383
ssS'MCDOWELL, GARY'
p384
(dp385
g5
VMCDOWELL, GARY J. HON.
p386
sg7
VH
p387
sg9
V01
p388
sg11
S'H0MI01153'
p389
sg13
VDEM
p390
sg15
VMI
p391
ssS'HELLER, DEAN'
p392
(dp393
g5
VHELLER, DEAN
p394
sg7
VS
p395
sg9
V00
p396
sg11
S'S2NV00183'
p397
sg13
VREP
p398
sg15
VNV
p399
ssS'HECK, JOE'
p400
(dp401
g5
VHECK, JOE
p402
sg7
VH
p403
sg9
V03
p404
sg11
S'H0NV03058'
p405
sg13
VREP
p406
sg15
VNV
p407
ssS'MOURDOCK, RICHARD E'
p408
(dp409
g5
VMOURDOCK, RICHARD E
p410
sg7
VS
p411
sg9
V00
p412
sg11
S'S2IN00083'
p413
sg13
VREP
p414
sg15
VIN
p415
ssS'DAVID, GILL'
p416
(dp417
g5
VGILL, DAVID MICHAEL
p418
sg7
VH
p419
sg9
V13
p420
sg11
S'H4IL15055'
p421
sg13
VDEM
p422
sg15
VIL
p423
ssS'PACE, SAL'
p424
(dp425
g5
VPACE, SALVATORE II
p426
sg7
VH
p427
sg9
V03
p428
sg11
S'H2CO03138'
p429
sg13
VDEM
p430
sg15
VCO
p431
ssS'GILL, DAVID'
p432
(dp433
g5
VGILL, DAVID MICHAEL
p434
sg7
VH
p435
sg9
V13
p436
sg11
g421
sg13
VDEM
p437
sg15
VIL
p438
ssS'HOLDING, GEORGE'
p439
(dp440
g5
VHOLDING, GEORGE E. B. MR.
p441
sg7
VH
p442
sg9
V13
p443
sg11
S'H2NC13110'
p444
sg13
VREP
p445
sg15
VNC
p446
ssS'TURNER, BOB'
p447
(dp448
g5
VTURNER, ROBERT L
p449
sg7
VS
p450
sg9
V00
p451
sg11
S'H0NY09072'
p452
sg13
VREP
p453
sg15
VNY
p454
ssS'MCSALLY, MARTHA'
p455
(dp456
g5
VMCSALLY, MARTHA E
p457
sg7
VH
p458
sg9
V02
p459
sg11
S'H2AZ08102'
p460
sg13
VREP
p461
sg15
VAZ
p462
ssS'CABRAL, KRISTIN'
p463
(dp464
g5
VCABRAL, KRISTIN
p465
sg7
VH
p466
sg9
V10
p467
sg11
S'H2VA10125'
p468
sg13
VDEM
p469
sg15
VVA
p470
ssS'VALADAO, DAVID'
p471
(dp472
g5
VVALADAO, DAVID
p473
sg7
VH
p474
sg9
V21
p475
sg11
S'H2CA20094'
p476
sg13
VREP
p477
sg15
VCA
p478
ssS'GARAMENDI, JOHN'
p479
(dp480
g5
VGARAMENDI, JOHN
p481
sg7
VH
p482
sg9
V03
p483
sg11
S'H0CA10149'
p484
sg13
VDEM
p485
sg15
VCA
p486
ssS'ADLER, SHELLEY'
p487
(dp488
g5
VADLER, SHELLEY
p489
sg7
VH
p490
sg9
V03
p491
sg11
S'H2NJ03183'
p492
sg13
VDEM
p493
sg15
VNJ
p494
ssS'GERLACH, JAMES'
p495
(dp496
g5
VGERLACH, JIM
p497
sg7
VH
p498
sg9
V06
p499
sg11
g245
sg13
VREP
p500
sg15
VPA
p501
ssS'HOOGENDYK, JACK'
p502
(dp503
g5
VHOOGENDYK, JACK
p504
sg7
VH
p505
sg9
V06
p506
sg11
S'H0MI06103'
p507
sg13
VREP
p508
sg15
VMI
p509
ssS'JOYCE, BEATTY'
p510
(dp511
g5
VBEATTY, JOYCE
p512
sg7
VH
p513
sg9
V03
p514
sg11
S'H2OH03125'
p515
sg13
VDEM
p516
sg15
VOH
p517
ssS'CRUZ, TED'
p518
(dp519
g5
VCRUZ, RAFAEL EDWARD TED
p520
sg7
VS
p521
sg9
V00
p522
sg11
S'S2TX00312'
p523
sg13
VREP
p524
sg15
VTX
p525
ssS'HOWELL, JASON'
p526
(dp527
g5
VHOWELL, JASON
p528
sg7
VH
p529
sg9
V08
p530
sg11
S'H2VA08129'
p531
sg13
VIND
p532
sg15
VVA
p533
ssS'KAINE, TIM'
p534
(dp535
g5
VKAINE, TIMOTHY MICHAEL
p536
sg7
VS
p537
sg9
V00
p538
sg11
S'S2VA00142'
p539
sg13
VDEM
p540
sg15
VVA
p541
ssS'MURPHY, CHRIS'
p542
(dp543
g5
VMURPHY, CHRISTOPHER S
p544
sg7
VS
p545
sg9
V00
p546
sg11
S'S2CT00132'
p547
sg13
VDEM
p548
sg15
VCT
p549
ssS'TAKANO, MARK'
p550
(dp551
g5
VTAKANO, MARK
p552
sg7
VH
p553
sg9
V41
p554
sg11
S'H2CA43245'
p555
sg13
VDEM
p556
sg15
VCA
p557
ssS'COHEN, STEVE'
p558
(dp559
g5
VCOHEN, STEPHEN IRA
p560
sg7
VH
p561
sg9
V09
p562
sg11
S'H6TN09068'
p563
sg13
VDEM
p564
sg15
VTN
p565
ssS'SHEA-PORTER, CAROL'
p566
(dp567
g5
VSHEA-PORTER, CAROL
p568
sg7
VH
p569
sg9
V01
p570
sg11
S'H6NH01230'
p571
sg13
VDEM
p572
sg15
VNH
p573
ssS'SANTORUM, RICK'
p574
(dp575
g5
VSANTORUM, RICHARD J.
p576
sg7
VP
p577
sg9
V00
p578
sg11
S'P20002721'
p579
sg13
VREP
p580
sg15
VUS
p581
ssS'MULLEN, BRENDAN'
p582
(dp583
g5
VMULLEN, BRENDAN B.
p584
sg7
VH
p585
sg9
V02
p586
sg11
S'H2IN02204'
p587
sg13
VDEM
p588
sg15
VIN
p589
ssS'ZOLLER", "MARTHA'
p590
(dp591
g5
VZOLLER, MARTHA MITCHELL
p592
sg7
VH
p593
sg9
V09
p594
sg11
S'H2GA09143'
p595
sg13
VREP
p596
sg15
VGA
p597
ssS'JARED, POLIS'
p598
(dp599
g5
VPOLIS, JARED
p600
sg7
VH
p601
sg9
V02
p602
sg11
S'H8CO02137'
p603
sg13
VDEM
p604
sg15
VCO
p605
ssS'BELLAVIA, DAVID'
p606
(dp607
g5
VBELLAVIA, DAVID GREGORY
p608
sg7
VH
p609
sg9
V27
p610
sg11
S'H8NY26087'
p611
sg13
VREP
p612
sg15
VNY
p613
ssS'WELDON, DAVE'
p614
(dp615
g5
VWELDON, DAVID JOSEPH
p616
sg7
VS
p617
sg9
V00
p618
sg11
S'S2FL00375'
p619
sg13
VREP
p620
sg15
VFL
p621
ssS'PATON, JONATHAN'
p622
(dp623
g5
VPATON, JONATHAN
p624
sg7
VH
p625
sg9
V01
p626
sg11
S'H0AZ08056'
p627
sg13
VREP
p628
sg15
VAZ
p629
ssS'TAMMY, BALDWIN'
p630
(dp631
g5
VBALDWIN, TAMMY
p632
sg7
VS
p633
sg9
V00
p634
sg11
S'S2WI00219'
p635
sg13
VDEM
p636
sg15
VWI
p637
ssS'DAVID, SCHWEIKERT'
p638
(dp639
g5
VSCHWEIKERT, DAVID
p640
sg7
VH
p641
sg9
V06
p642
sg11
S'H4AZ06045'
p643
sg13
VREP
p644
sg15
VAZ
p645
ssS'STOCKMAN, STEVE'
p646
(dp647
g5
VSTOCKMAN, STEVE
p648
sg7
VH
p649
sg9
V36
p650
sg11
S'H6TX22143'
p651
sg13
VREP
p652
sg15
VTX
p653
ssS'CHRISTOPHER, MURPHY'
p654
(dp655
g5
VMURPHY, CHRISTOPHER S
p656
sg7
VS
p657
sg9
V00
p658
sg11
g547
sg13
VDEM
p659
sg15
VCT
p660
ssS'SCHNEIDER, BRAD'
p661
(dp662
g5
VSCHNEIDER, BRADLEY SCOTT
p663
sg7
VH
p664
sg9
V10
p665
sg11
S'H2IL10068'
p666
sg13
VDEM
p667
sg15
VIL
p668
ssS'PATSY, KEEVER'
p669
(dp670
g5
VKEEVER, PATRICIA R
p671
sg7
VH
p672
sg9
V10
p673
sg11
S'H4NC11052'
p674
sg13
VDEM
p675
sg15
VNC
p676
ssS'CARMONA, RICHARD'
p677
(dp678
g5
VCARMONA, RICHARD
p679
sg7
VS
p680
sg9
V00
p681
sg11
S'S2AZ00232'
p682
sg13
VDEM
p683
sg15
VAZ
p684
ssS'CAMPBELL, DONNA'
p685
(dp686
g5
VCAMPBELL, DONNA DR.
p687
sg7
VH
p688
sg9
V25
p689
sg11
S'H0TX25073'
p690
sg13
VREP
p691
sg15
VTX
p692
ssS'MCSALLY, MARTH'
p693
(dp694
g5
VMCSALLY, MARTHA E
p695
sg7
VH
p696
sg9
V02
p697
sg11
g460
sg13
VREP
p698
sg15
VAZ
p699
ssS'KELLY, GEORGE'
p700
(dp701
g5
VKELLY, GEORGE J JR J. JR.
p702
sg7
VH
p703
sg9
V03
p704
sg11
S'H0PA03271'
p705
sg13
VREP
p706
sg15
VPA
p707
ssS'MAYFIELD, SCOTTIE'
p708
(dp709
g5
VMAYFIELD, CHARLES SCOTT JR
p710
sg7
VH
p711
sg9
V03
p712
sg11
S'H2TN03151'
p713
sg13
VREP
p714
sg15
VTN
p715
ssS'WALORSKI, JACKIE'
p716
(dp717
g5
VWALORSKI (SWIHART), JACKIE
p718
sg7
VH
p719
sg9
V02
p720
sg11
S'H0IN02190'
p721
sg13
VREP
p722
sg15
VIN
p723
ssS'ROYCE, ED'
p724
(dp725
g5
VROYCE, EDWARD R
p726
sg7
VH
p727
sg9
V39
p728
sg11
S'H6CA39020'
p729
sg13
VREP
p730
sg15
VCA
p731
ssS'BYBERG, LEE'
p732
(dp733
g5
VBYBERG, LEE
p734
sg7
VH
p735
sg9
V07
p736
sg11
S'H0MN07059'
p737
sg13
VREP
p738
sg15
VMN
p739
ssS'DAVIS, SUSAN'
p740
(dp741
g5
VDAVIS, SUSAN A
p742
sg7
VH
p743
sg9
V53
p744
sg11
S'H0CA49055'
p745
sg13
VDEM
p746
sg15
VCA
p747
ssS'GARDNER, CORY'
p748
(dp749
g5
VGARDNER, CORY
p750
sg7
VH
p751
sg9
V04
p752
sg11
S'H0CO04122'
p753
sg13
VREP
p754
sg15
VCO
p755
ssS'RAUL, RUIZ'
p756
(dp757
g5
VRUIZ, RAUL DR.
p758
sg7
VH
p759
sg9
V36
p760
sg11
S'H2CA36439'
p761
sg13
VDEM
p762
sg15
VCA
p763
ssS'KANG, SUKHEE'
p764
(dp765
g5
VKANG, SUKHEE
p766
sg7
VH
p767
sg9
V45
p768
sg11
S'H2CA48087'
p769
sg13
VDEM
p770
sg15
VCA
p771
ssS'HEITKAMP, HEIDI'
p772
(dp773
g5
VHEITKAMP, HEIDI
p774
sg7
VS
p775
sg9
V00
p776
sg11
S'S2ND00099'
p777
sg13
VDEM
p778
sg15
VND
p779
ssS'BENISHEK , DAN'
p780
(dp781
g5
VBENISHEK, DANIEL J. M.D.
p782
sg7
VH
p783
sg9
V01
p784
sg11
S'H0MI01088'
p785
sg13
VREP
p786
sg15
VMI
p787
ssS'BARAK OBAMA,'
p788
(dp789
g5
VOBAMA, BARACK
p790
sg7
VP
p791
sg9
V00
p792
sg11
S'P80003338'
p793
sg13
VDEM
p794
sg15
VUS
p795
ssS'JAMES, MCDERMOTT'
p796
(dp797
g5
VMCDERMOTT, JAMES
p798
sg7
VH
p799
sg9
V07
p800
sg11
S'H8WA07132'
p801
sg13
VDEM
p802
sg15
VWA
p803
ssS'HARTZLER, VICKY'
p804
(dp805
g5
VHARTZLER, VICKY
p806
sg7
VH
p807
sg9
V04
p808
sg11
S'H0MO04086'
p809
sg13
VREP
p810
sg15
VMO
p811
ssS'YOUNG, C.W.'
p812
(dp813
g5
VYOUNG, C W BILL
p814
sg7
VH
p815
sg9
V13
p816
sg11
g86
sg13
VREP
p817
sg15
VFL
p818
ssS'BARACK OBAMA,'
p819
(dp820
g5
VOBAMA, BARACK
p821
sg7
VP
p822
sg9
V00
p823
sg11
g793
sg13
VDEM
p824
sg15
VUS
p825
ssS'HAYWORTH, NAN'
p826
(dp827
g5
VHAYWORTH, NAN
p828
sg7
VH
p829
sg9
V18
p830
sg11
S'H0NY19139'
p831
sg13
VREP
p832
sg15
VNY
p833
ssS'BERA, AMI'
p834
(dp835
g5
VBERA, AMERISH
p836
sg7
VH
p837
sg9
V07
p838
sg11
S'H0CA03078'
p839
sg13
VDEM
p840
sg15
VCA
p841
ssS'HANNA, RICHARD'
p842
(dp843
g5
VHANNA, RICHARD
p844
sg7
VH
p845
sg9
V22
p846
sg11
S'H8NY24066'
p847
sg13
VREP
p848
sg15
VNY
p849
ssS'RIGEL, SCOTT'
p850
(dp851
g5
VRIGELL, EDWARD SCOTT MR.
p852
sg7
VH
p853
sg9
V02
p854
sg11
g165
sg13
VREP
p855
sg15
VVA
p856
ssS'HOEKSTRA, PETE'
p857
(dp858
g5
VHOEKSTRA, PETER
p859
sg7
VS
p860
sg9
V00
p861
sg11
S'S2MI00193'
p862
sg13
VREP
p863
sg15
VMI
p864
ssS'CARDIN, BENJAMIN L'
p865
(dp866
g5
VCARDIN, BENJAMIN L
p867
sg7
VS
p868
sg9
V00
p869
sg11
S'S6MD03177'
p870
sg13
VDEM
p871
sg15
VMD
p872
ssS'KILMER, DEREK'
p873
(dp874
g5
VKILMER, DEREK
p875
sg7
VH
p876
sg9
V06
p877
sg11
S'H2WA06129'
p878
sg13
VDEM
p879
sg15
VWA
p880
ssS'BARROW, JOHN'
p881
(dp882
g5
VBARROW, JOHN J.
p883
sg7
VH
p884
sg9
V12
p885
sg11
S'H4GA12010'
p886
sg13
VDEM
p887
sg15
VGA
p888
ssS'JIM, COSTA'
p889
(dp890
g5
VCOSTA, JIM
p891
sg7
VH
p892
sg9
V16
p893
sg11
S'H4CA20082'
p894
sg13
VDEM
p895
sg15
VCA
p896
ssS'FISCHER, DEB'
p897
(dp898
g5
VFISCHER, DEBRA S
p899
sg7
VS
p900
sg9
V00
p901
sg11
S'S2NE00094'
p902
sg13
VREP
p903
sg15
VNE
p904
ssS'HAHN, JANICE'
p905
(dp906
g5
VHAHN, JANICE
p907
sg7
VH
p908
sg9
V44
p909
sg11
S'H8CA36097'
p910
sg13
VDEM
p911
sg15
VCA
p912
ssS'PETERS, GARY'
p913
(dp914
g5
VPETERS, GARY
p915
sg7
VH
p916
sg9
V14
p917
sg11
S'H8MI09068'
p918
sg13
VDEM
p919
sg15
VMI
p920
ssS'MATHESON, JAMES'
p921
(dp922
g5
VMATHESON, JAMES D
p923
sg7
VH
p924
sg9
V04
p925
sg11
S'H0UT02096'
p926
sg13
VDEM
p927
sg15
VUT
p928
ssS'GILL, RICKY'
p929
(dp930
g5
VGILL, RICKY
p931
sg7
VH
p932
sg9
V09
p933
sg11
S'H2CA11135'
p934
sg13
VREP
p935
sg15
VCA
p936
ssS'MAZIE, HIRONO'
p937
(dp938
g5
VHIRONO, MAZIE K
p939
sg7
VS
p940
sg9
V00
p941
sg11
S'S2HI00106'
p942
sg13
VDEM
p943
sg15
VHI
p944
ssS'SIMPSON, MIKE'
p945
(dp946
g5
VSIMPSON, MICHAEL K
p947
sg7
VH
p948
sg9
V02
p949
sg11
S'H8ID02064'
p950
sg13
VREP
p951
sg15
VID
p952
ssS'OWENS, WILLIAM'
p953
(dp954
g5
VOWENS, WILLIAM
p955
sg7
VH
p956
sg9
V21
p957
sg11
S'H0NY23081'
p958
sg13
VDEM
p959
sg15
VNY
p960
ssS'STARK, PETE'
p961
(dp962
g5
VSTARK, FORTNEY HILLMAN JR
p963
sg7
VH
p964
sg9
V15
p965
sg11
S'H6CA09023'
p966
sg13
VDEM
p967
sg15
VCA
p968
ssS'HERNANDEZ, JOSE'
p969
(dp970
g5
VHERNANDEZ, JOSE M
p971
sg7
VH
p972
sg9
V10
p973
sg11
S'H2CA10145'
p974
sg13
VDEM
p975
sg15
VCA
p976
ssS'LATHAM, THOMAS'
p977
(dp978
g5
VLATHAM, THOMAS
p979
sg7
VH
p980
sg9
V03
p981
sg11
S'H4IA05102'
p982
sg13
VREP
p983
sg15
VIA
p984
ssS'YOHO, THEODORE'
p985
(dp986
g5
VYOHO, THEODORE SCOTT
p987
sg7
VH
p988
sg9
V03
p989
sg11
S'H2FL06109'
p990
sg13
VREP
p991
sg15
VFL
p992
ssS'ARCHER, JOHN'
p993
(dp994
g5
VARCHER, JOHN HENRY
p995
sg7
VH
p996
sg9
V02
p997
sg11
S'H2IA02053'
p998
sg13
VREP
p999
sg15
VIA
p1000
ssS'2012, OBAMA/BIDEN'
p1001
(dp1002
g5
VOBAMA, BARACK
p1003
sg7
VP
p1004
sg9
V00
p1005
sg11
g793
sg13
VDEM
p1006
sg15
VUS
p1007
ssS'HEIDI, HEITKAMP'
p1008
(dp1009
g5
VHEITKAMP, HEIDI
p1010
sg7
VS
p1011
sg9
V00
p1012
sg11
S'S2ND00099'
p1013
sg13
VDEM
p1014
sg15
VND
p1015
ssS'WAGNER, ANN'
p1016
(dp1017
g5
VWAGNER, ANN L
p1018
sg7
VH
p1019
sg9
V02
p1020
sg11
S'H2MO02102'
p1021
sg13
VREP
p1022
sg15
VMO
p1023
ssS'MOURDOCK, RICHARD'
p1024
(dp1025
g5
VMOURDOCK, RICHARD E
p1026
sg7
VS
p1027
sg9
V00
p1028
sg11
g413
sg13
VREP
p1029
sg15
VIN
p1030
ssS'BARLETTA, LOU'
p1031
(dp1032
g5
VBARLETTA, LOU
p1033
sg7
VH
p1034
sg9
V11
p1035
sg11
S'H2PA11098'
p1036
sg13
VREP
p1037
sg15
VPA
p1038
ssS'MURPHY, CHRISTOPHER'
p1039
(dp1040
g5
VMURPHY, CHRISTOPHER S
p1041
sg7
VS
p1042
sg9
V00
p1043
sg11
S'S2CT00132'
p1044
sg13
VDEM
p1045
sg15
VCT
p1046
ssS'BROWN, SHERROD'
p1047
(dp1048
g5
VBROWN, SHERROD
p1049
sg7
VS
p1050
sg9
V00
p1051
sg11
S'S6OH00163'
p1052
sg13
VDEM
p1053
sg15
VOH
p1054
ssS'WEBER, RANDY'
p1055
(dp1056
g5
VWEBER, RANDY
p1057
sg7
VH
p1058
sg9
V14
p1059
sg11
S'H2TX14149'
p1060
sg13
VREP
p1061
sg15
VTX
p1062
ssS'LUGAR, RICHARD G'
p1063
(dp1064
g5
VLUGAR, RICHARD G
p1065
sg7
VS
p1066
sg9
V00
p1067
sg11
S'S4IN00014'
p1068
sg13
VREP
p1069
sg15
VIN
p1070
ssS'YOUNG, C.W. "BILL'
p1071
(dp1072
g5
VYOUNG, C W BILL
p1073
sg7
VH
p1074
sg9
V13
p1075
sg11
g86
sg13
VREP
p1076
sg15
VFL
p1077
ssS'BRIDGEWATER, TIM'
p1078
(dp1079
g5
VBRIDGEWATER, TIM
p1080
sg7
VS
p1081
sg9
V00
p1082
sg11
S'S0UT00157'
p1083
sg13
VREP
p1084
sg15
VUT
p1085
ssS'BENISHEK, DANIEL'
p1086
(dp1087
g5
VBENISHEK, DANIEL J. M.D.
p1088
sg7
VH
p1089
sg9
V01
p1090
sg11
S'H0MI01088'
p1091
sg13
VREP
p1092
sg15
VMI
p1093
ssS'TAJ, SYED'
p1094
(dp1095
g5
VTAJ, SYED DR
p1096
sg7
VH
p1097
sg9
V11
p1098
sg11
S'H2MI11117'
p1099
sg13
VDEM
p1100
sg15
VMI
p1101
ssS'TISEI, RICHARD'
p1102
(dp1103
g5
VTISEI, RICHARD R.
p1104
sg7
VH
p1105
sg9
V06
p1106
sg11
S'H2MA00014'
p1107
sg13
VREP
p1108
sg15
VMA
p1109
ssS'MIKE, MICHAUD'
p1110
(dp1111
g5
VMICHAUD, MICHAEL H.
p1112
sg7
VH
p1113
sg9
V02
p1114
sg11
S'H2ME02097'
p1115
sg13
VDEM
p1116
sg15
VME
p1117
ssS'SCHWEIKERT, DAVID'
p1118
(dp1119
g5
VSCHWEIKERT, DAVID
p1120
sg7
VH
p1121
sg9
V06
p1122
sg11
S'H4AZ06045'
p1123
sg13
VREP
p1124
sg15
VAZ
p1125
ssS'KIND, RON'
p1126
(dp1127
g5
VKIND, RON
p1128
sg7
VH
p1129
sg9
V03
p1130
sg11
S'H6WI03099'
p1131
sg13
VDEM
p1132
sg15
VWI
p1133
ssS'BOUCHER, RICK'
p1134
(dp1135
g5
VBOUCHER, FREDERICK C
p1136
sg7
VH
p1137
sg9
V09
p1138
sg11
S'H2VA09010'
p1139
sg13
VDEM
p1140
sg15
VVA
p1141
ssS'DAINES, STEVEN'
p1142
(dp1143
g5
VDAINES, STEVEN
p1144
sg7
VS
p1145
sg9
V00
p1146
sg11
S'S2MT00096'
p1147
sg13
VREP
p1148
sg15
VMT
p1149
ssS'EMKEN, ELIZABETH'
p1150
(dp1151
g5
VEMKEN, ELIZABETH
p1152
sg7
VS
p1153
sg9
V00
p1154
sg11
S'S2CA00641'
p1155
sg13
VREP
p1156
sg15
VCA
p1157
ssS'COSTA, JIM'
p1158
(dp1159
g5
VCOSTA, JIM
p1160
sg7
VH
p1161
sg9
V16
p1162
sg11
S'H4CA20082'
p1163
sg13
VDEM
p1164
sg15
VCA
p1165
ssS'KUCINICH, DENNIS'
p1166
(dp1167
g5
VKUCINICH, DENNIS J
p1168
sg7
VH
p1169
sg9
V09
p1170
sg11
S'H6OH23033'
p1171
sg13
VDEM
p1172
sg15
VOH
p1173
ssS'BONO-MACK, MARY'
p1174
(dp1175
g5
VBONO MACK, MARY
p1176
sg7
VH
p1177
sg9
V36
p1178
sg11
S'H8CA44034'
p1179
sg13
VREP
p1180
sg15
VCA
p1181
ssS'SINEMA", "KRYSTEN'
p1182
(dp1183
g5
VSINEMA, KYRSTEN
p1184
sg7
VH
p1185
sg9
V09
p1186
sg11
S'H2AZ09019'
p1187
sg13
VDEM
p1188
sg15
VAZ
p1189
ssS'JAMES, MATHESON'
p1190
(dp1191
g5
VMATHESON, JAMES D
p1192
sg7
VH
p1193
sg9
V04
p1194
sg11
g926
sg13
VDEM
p1195
sg15
VUT
p1196
ssS'DAVIS, JACK'
p1197
(dp1198
g5
VDAVIS, JACK
p1199
sg7
VH
p1200
sg9
V26
p1201
sg11
S'H4NY26045'
p1202
sg13
VREP
p1203
sg15
VNY
p1204
ssS'KAINE, TIMOTHY'
p1205
(dp1206
g5
VKAINE, TIMOTHY MICHAEL
p1207
sg7
VS
p1208
sg9
V00
p1209
sg11
S'S2VA00142'
p1210
sg13
VDEM
p1211
sg15
VVA
p1212
ssS'BRALEY, BRUCE'
p1213
(dp1214
g5
VBRALEY, BRUCE L
p1215
sg7
VH
p1216
sg9
V01
p1217
sg11
S'H6IA01098'
p1218
sg13
VDEM
p1219
sg15
VIA
p1220
ssS'CORWIN, JANE'
p1221
(dp1222
g5
VCORWIN, JANE
p1223
sg7
VH
p1224
sg9
V26
p1225
sg11
S'H2NY00044'
p1226
sg13
VREP
p1227
sg15
VNY
p1228
ssS'THOMPSON, TOMMY'
p1229
(dp1230
g5
VTHOMPSON, TOMMY G
p1231
sg7
VS
p1232
sg9
V00
p1233
sg11
S'S2WI00235'
p1234
sg13
VREP
p1235
sg15
VWI
p1236
ssS'DURANT, CLARK'
p1237
(dp1238
g5
VDURANT, CLARK
p1239
sg7
VS
p1240
sg9
V00
p1241
sg11
S'S0MI00056'
p1242
sg13
VREP
p1243
sg15
VMI
p1244
ssS'CARTWRIGHT, MATT'
p1245
(dp1246
g5
VCARTWRIGHT, MATTHEW A
p1247
sg7
VH
p1248
sg9
V17
p1249
sg11
S'H2PA17079'
p1250
sg13
VDEM
p1251
sg15
VPA
p1252
ssS'SOUTHERLAND, STEVE'
p1253
(dp1254
g5
VSOUTHERLAND, WILLIAM STEVE II
p1255
sg7
VH
p1256
sg9
V02
p1257
sg11
S'H0FL02110'
p1258
sg13
VREP
p1259
sg15
VFL
p1260
ssS'DOLD, BOB'
p1261
(dp1262
g5
VDOLD, ROBERT JAMES MR JR
p1263
sg7
VH
p1264
sg9
V10
p1265
sg11
S'H0IL10302'
p1266
sg13
VREP
p1267
sg15
VIL
p1268
ssS'PAUL, RON'
p1269
(dp1270
g5
VPAUL, RON
p1271
sg7
VP
p1272
sg9
V00
p1273
sg11
S'P80000748'
p1274
sg13
VREP
p1275
sg15
VUS
p1276
ssS'MAFFEI, DANIEL'
p1277
(dp1278
g5
VMAFFEI, DANIEL BENJAMIN MR.
p1279
sg7
VH
p1280
sg9
V24
p1281
sg11
S'H6NY25125'
p1282
sg13
VDEM
p1283
sg15
VNY
p1284
ssS'LANDRY, JEFF'
p1285
(dp1286
g5
VLANDRY, JEFFREY M
p1287
sg7
VH
p1288
sg9
V03
p1289
sg11
S'H0LA03141'
p1290
sg13
VREP
p1291
sg15
VLA
p1292
ssS'LUNGREN, DAN'
p1293
(dp1294
g5
VLUNGREN, DANIEL E.
p1295
sg7
VH
p1296
sg9
V07
p1297
sg11
S'H6CA34112'
p1298
sg13
VREP
p1299
sg15
VCA
p1300
ssS'KING, ANGUS'
p1301
(dp1302
g5
VKING, ANGUS STANLEY JR
p1303
sg7
VS
p1304
sg9
V00
p1305
sg11
S'S2ME00109'
p1306
sg13
VIND
p1307
sg15
VME
p1308
ssS'DEMINGS, VAL'
p1309
(dp1310
g5
VDEMINGS, VALDEZ VAL
p1311
sg7
VH
p1312
sg9
V10
p1313
sg11
S'H2FL08063'
p1314
sg13
VDEM
p1315
sg15
VFL
p1316
ssS'MALONEY, SEAN'
p1317
(dp1318
g5
VMALONEY, SEAN PATRICK
p1319
sg7
VH
p1320
sg9
V18
p1321
sg11
S'H2NY22139'
p1322
sg13
VDEM
p1323
sg15
VNY
p1324
ssS'MCMAHON, LINDA'
p1325
(dp1326
g5
VMCMAHON, LINDA
p1327
sg7
VS
p1328
sg9
V00
p1329
sg11
S'S0CT00151'
p1330
sg13
VREP
p1331
sg15
VCT
p1332
ssS'AUBUCHON, GARY'
p1333
(dp1334
g5
VAUBUCHON, GARY
p1335
sg7
VH
p1336
sg9
V19
p1337
sg11
S'H2FL14145'
p1338
sg13
VREP
p1339
sg15
VFL
p1340
ssS'NOLAN, RICK'
p1341
(dp1342
g5
VNOLAN, RICHARD MICHAEL
p1343
sg7
VH
p1344
sg9
V08
p1345
sg11
S'H2MN08111'
p1346
sg13
VDFL
p1347
sg15
VMN
p1348
ssS'CANSSECO, QUICO'
p1349
(dp1350
g5
VCANSECO, FRANCISCO RAUL QUICO R.
p1351
sg7
VH
p1352
sg9
V23
p1353
sg11
S'H4TX28046'
p1354
sg13
VREP
p1355
sg15
VTX
p1356
ssS'ROMEY, MITT'
p1357
(dp1358
g5
VROMNEY, MITT / RYAN, PAUL D.
p1359
sg7
VP
p1360
sg9
V00
p1361
sg11
g309
sg13
VREP
p1362
sg15
VUS
p1363
ssS'KREITLOW", "PAT'
p1364
(dp1365
g5
VKREITLOW, PATRICK
p1366
sg7
VH
p1367
sg9
V07
p1368
sg11
S'H2WI07065'
p1369
sg13
VDEM
p1370
sg15
VWI
p1371
ssS'RANGEL, CHARLES'
p1372
(dp1373
g5
VRANGEL, CHARLES B
p1374
sg7
VH
p1375
sg9
V13
p1376
sg11
S'H6NY19029'
p1377
sg13
VDEM
p1378
sg15
VNY
p1379
ssS'OBAMA, BARAK'
p1380
(dp1381
g5
VOBAMA, BARACK
p1382
sg7
VP
p1383
sg9
V00
p1384
sg11
S'P80003338'
p1385
sg13
VDEM
p1386
sg15
VUS
p1387
ssS'RUIZ, RAUL'
p1388
(dp1389
g5
VRUIZ, RAUL DR.
p1390
sg7
VH
p1391
sg9
V36
p1392
sg11
g761
sg13
VDEM
p1393
sg15
VCA
p1394
ssS'TITUS, DINA'
p1395
(dp1396
g5
VTITUS, DINA
p1397
sg7
VH
p1398
sg9
V01
p1399
sg11
S'H8NV03036'
p1400
sg13
VDEM
p1401
sg15
VNV
p1402
ssS'HERNANDEZ, HOSE'
p1403
(dp1404
g5
VHERNANDEZ, JOSE M
p1405
sg7
VH
p1406
sg9
V10
p1407
sg11
S'H2CA10145'
p1408
sg13
VDEM
p1409
sg15
VCA
p1410
ssS'MEEHAN, PATRICK'
p1411
(dp1412
g5
VMEEHAN, PATRICK L. MR. JR.
p1413
sg7
VH
p1414
sg9
V07
p1415
sg11
S'H0PA07082'
p1416
sg13
VREP
p1417
sg15
VPA
p1418
ssS'JEFF, DENHAM'
p1419
(dp1420
g5
VDENHAM, JEFF
p1421
sg7
VH
p1422
sg9
V10
p1423
sg11
S'H0CA19173'
p1424
sg13
VREP
p1425
sg15
VCA
p1426
ssS'SHEA PORTOR, CAROL'
p1427
(dp1428
g5
VSHEA-PORTER, CAROL
p1429
sg7
VH
p1430
sg9
V01
p1431
sg11
g571
sg13
VDEM
p1432
sg15
VNH
p1433
ssS'RICHARD, CARMONA'
p1434
(dp1435
g5
VCARMONA, RICHARD
p1436
sg7
VS
p1437
sg9
V00
p1438
sg11
S'S2AZ00232'
p1439
sg13
VDEM
p1440
sg15
VAZ
p1441
ssS'SLAUGHTER, LOUISE'
p1442
(dp1443
g5
VSLAUGHTER, LOUISE M
p1444
sg7
VH
p1445
sg9
V25
p1446
sg11
S'H6NY03031'
p1447
sg13
VDEM
p1448
sg15
VNY
p1449
ssS'AMODEI, MARK'
p1450
(dp1451
g5
VAMODEI, MARK EUGENE
p1452
sg7
VS
p1453
sg9
V00
p1454
sg11
S'S0NV00237'
p1455
sg13
VREP
p1456
sg15
VNV
p1457
ssS'CHRIS, WINN'
p1458
(dp1459
g5
VWINN, CHRISTOPHER DUDLEY
p1460
sg7
VH
p1461
sg9
V19
p1462
sg11
S'H2TX19064'
p1463
sg13
VREP
p1464
sg15
VTX
p1465
ssS'LITTLE, ANNA C'
p1466
(dp1467
g5
VLITTLE, ANNA C
p1468
sg7
VS
p1469
sg9
V00
p1470
sg11
S'S2NJ00395'
p1471
sg13
VREP
p1472
sg15
VNJ
p1473
ssS'AKIN, TODD'
p1474
(dp1475
g5
VAKIN, W TODD
p1476
sg7
VS
p1477
sg9
V00
p1478
sg11
S'S2MO00429'
p1479
sg13
VREP
p1480
sg15
VMO
p1481
ssS'BONO MACK, MARY'
p1482
(dp1483
g5
VBONO MACK, MARY
p1484
sg7
VH
p1485
sg9
V36
p1486
sg11
g1179
sg13
VREP
p1487
sg15
VCA
p1488
ssS'CASEY, BOB'
p1489
(dp1490
g5
VCASEY, ROBERT P JR
p1491
sg7
VS
p1492
sg9
V00
p1493
sg11
S'S6PA00217'
p1494
sg13
VDEM
p1495
sg15
VPA
p1496
ssS'GALLEGO, PETE'
p1497
(dp1498
g5
VGALLEGO, PETE
p1499
sg7
VH
p1500
sg9
V23
p1501
sg11
S'H2TX23124'
p1502
sg13
VDEM
p1503
sg15
VTX
p1504
ssS'GILLAN, KIM'
p1505
(dp1506
g5
VGILLAN, KIM
p1507
sg7
VH
p1508
sg9
V00
p1509
sg11
S'H2MT00047'
p1510
sg13
VDEM
p1511
sg15
VMT
p1512
ssS'KIRKPATRICK, ANN'
p1513
(dp1514
g5
VKIRKPATRICK, ANN
p1515
sg7
VH
p1516
sg9
V01
p1517
sg11
S'H8AZ01104'
p1518
sg13
VDEM
p1519
sg15
VAZ
p1520
ssS'DUCKWORTH, TAMMY'
p1521
(dp1522
g5
VDUCKWORTH, L. TAMMY
p1523
sg7
VH
p1524
sg9
V08
p1525
sg11
S'H6IL06141'
p1526
sg13
VDEM
p1527
sg15
VIL
p1528
ssS'GABBARD, TULSI'
p1529
(dp1530
g5
VGABBARD, TULSI
p1531
sg7
VH
p1532
sg9
V02
p1533
sg11
S'H2HI02508'
p1534
sg13
VDEM
p1535
sg15
VHI
p1536
ssS'KERREY, J. ROBERT'
p1537
(dp1538
g5
VKERREY, J ROBERT
p1539
sg7
VS
p1540
sg9
V00
p1541
sg11
S'S8NE00067'
p1542
sg13
VDEM
p1543
sg15
VNE
p1544
ssS'LOVE, MIA'
p1545
(dp1546
g5
VLOVE, MIA
p1547
sg7
VH
p1548
sg9
V04
p1549
sg11
S'H2UT04023'
p1550
sg13
VREP
p1551
sg15
VUT
p1552
ssS'TIPTON, SCOTT'
p1553
(dp1554
g5
VTIPTON, SCOTT R.
p1555
sg7
VH
p1556
sg9
V03
p1557
sg11
S'H6CO03139'
p1558
sg13
VREP
p1559
sg15
VCO
p1560
ssS'MCINTYRE, MIKE'
p1561
(dp1562
g5
VMCINTYRE, MIKE REP.
p1563
sg7
VH
p1564
sg9
V07
p1565
sg11
S'H8NC07044'
p1566
sg13
VDEM
p1567
sg15
VNC
p1568
ssS'DEWHURST, DAVID'
p1569
(dp1570
g5
VDEWHURST, DAVID H
p1571
sg7
VS
p1572
sg9
V00
p1573
sg11
S'S2TX00361'
p1574
sg13
VREP
p1575
sg15
VTX
p1576
ssS'SOUTHERLAND, WILLIAM'
p1577
(dp1578
g5
VSOUTHERLAND, WILLIAM STEVE II
p1579
sg7
VH
p1580
sg9
V02
p1581
sg11
g1258
sg13
VREP
p1582
sg15
VFL
p1583
ssS'BIGGERT, JUDY'
p1584
(dp1585
g5
VBIGGERT, JUDY
p1586
sg7
VH
p1587
sg9
V11
p1588
sg11
S'H8IL13069'
p1589
sg13
VREP
p1590
sg15
VIL
p1591
ssS'DAVIS, RODNEY'
p1592
(dp1593
g5
VDAVIS, RODNEY L
p1594
sg7
VH
p1595
sg9
V13
p1596
sg11
S'H2IL13120'
p1597
sg13
VREP
p1598
sg15
VIL
p1599
ssS'KRISHNAMOORTHI, RAJA'
p1600
(dp1601
g5
VKRISHNAMOORTHI, S. RAJA
p1602
sg7
VH
p1603
sg9
V08
p1604
sg11
S'H2IL08096'
p1605
sg13
VDEM
p1606
sg15
VIL
p1607
ssS'SUMMERS, CHARLIE'
p1608
(dp1609
g5
VSUMMERS, CHARLES EDWARD JR
p1610
sg7
VS
p1611
sg9
V00
p1612
sg11
S'S2ME00133'
p1613
sg13
VREP
p1614
sg15
VME
p1615
ssS'PITTENGER, ROBERT'
p1616
(dp1617
g5
VPITTENGER, ROBERT M
p1618
sg7
VH
p1619
sg9
V09
p1620
sg11
S'H2NC09134'
p1621
sg13
VREP
p1622
sg15
VNC
p1623
ssS'OBAMA, BARAK HUSSEIN'
p1624
(dp1625
g5
VOBAMA, BARACK
p1626
sg7
VP
p1627
sg9
V00
p1628
sg11
S'P80003338'
p1629
sg13
VDEM
p1630
sg15
VUS
p1631
ssS'COLLINS, CHRISTOPHER'
p1632
(dp1633
g5
VCOLLINS, CHRISTOPHER C
p1634
sg7
VH
p1635
sg9
V27
p1636
sg11
S'H8NY29032'
p1637
sg13
VREP
p1638
sg15
VNY
p1639
ssS'SHERROD, BROWN'
p1640
(dp1641
g5
VBROWN, SHERROD
p1642
sg7
VS
p1643
sg9
V00
p1644
sg11
S'S6OH00163'
p1645
sg13
VDEM
p1646
sg15
VOH
p1647
ssS'DEMINGS, VALDEZ'
p1648
(dp1649
g5
VDEMINGS, VALDEZ VAL
p1650
sg7
VH
p1651
sg9
V10
p1652
sg11
g373
sg13
VDEM
p1653
sg15
VFL
p1654
ssS'ENYART, BILL'
p1655
(dp1656
g5
VENYART, WILLIAM L JR
p1657
sg7
VH
p1658
sg9
V12
p1659
sg11
S'H2IL12122'
p1660
sg13
VDEM
p1661
sg15
VIL
p1662
ssS'RON, PAUL'
p1663
(dp1664
g5
VPAUL, RON
p1665
sg7
VP
p1666
sg9
V00
p1667
sg11
S'P80000748'
p1668
sg13
VREP
p1669
sg15
VUS
p1670
ssS'SINEMA, KYRSTEN'
p1671
(dp1672
g5
VSINEMA, KYRSTEN
p1673
sg7
VH
p1674
sg9
V09
p1675
sg11
g1187
sg13
VDEM
p1676
sg15
VAZ
p1677
ssS'CHELLIE, PINGREE'
p1678
(dp1679
g5
VPINGREE, CHELLIE M
p1680
sg7
VH
p1681
sg9
V01
p1682
sg11
S'H8ME01120'
p1683
sg13
VDEM
p1684
sg15
VME
p1685
ssS'CROWLEY, ELIZABETH'
p1686
(dp1687
g5
VCROWLEY, ELIZABETH S
p1688
sg7
VH
p1689
sg9
V06
p1690
sg11
S'H2NY06124'
p1691
sg13
VDEM
p1692
sg15
VNY
p1693
ssS'MATSUI, DORIS'
p1694
(dp1695
g5
VMATSUI, DORIS
p1696
sg7
VH
p1697
sg9
V06
p1698
sg11
S'H6CA05195'
p1699
sg13
VDEM
p1700
sg15
VCA
p1701
ssS'MCCASKILL, CLAIRE'
p1702
(dp1703
g5
VMCCASKILL, CLAIRE
p1704
sg7
VS
p1705
sg9
V00
p1706
sg11
S'S6MO00305'
p1707
sg13
VDEM
p1708
sg15
VMO
p1709
ssS'CAPPS, LOIS'
p1710
(dp1711
g5
VCAPPS, LOIS
p1712
sg7
VH
p1713
sg9
V24
p1714
sg11
S'H8CA22089'
p1715
sg13
VDEM
p1716
sg15
VCA
p1717
ssS'TRAVIS, GRANTHAM'
p1718
(dp1719
g5
VGRANTHAM, TRAVIS W.
p1720
sg7
VH
p1721
sg9
V09
p1722
sg11
S'H2AZ06155'
p1723
sg13
VREP
p1724
sg15
VAZ
p1725
ssS'TONY, STRICKLAND'
p1726
(dp1727
g5
VSTRICKLAND, ANTHONY A.
p1728
sg7
VH
p1729
sg9
V26
p1730
sg11
S'H2CA26109'
p1731
sg13
VREP
p1732
sg15
VCA
p1733
ssS'BISHOP, TIM'
p1734
(dp1735
g5
VBISHOP, TIMOTHY
p1736
sg7
VH
p1737
sg9
V01
p1738
sg11
S'H2NY01067'
p1739
sg13
VDEM
p1740
sg15
VNY
p1741
ssS'CONYERS, JOHN'
p1742
(dp1743
g5
VCONYERS, JOHN JR.
p1744
sg7
VH
p1745
sg9
V13
p1746
sg11
S'H6MI01028'
p1747
sg13
VDEM
p1748
sg15
VMI
p1749
ssS'LUGAR, RICHARD'
p1750
(dp1751
g5
VLUGAR, RICHARD G
p1752
sg7
VS
p1753
sg9
V00
p1754
sg11
g1068
sg13
VREP
p1755
sg15
VIN
p1756
ssS'GALLEGO", "PETE'
p1757
(dp1758
g5
VGALLEGO, PETE
p1759
sg7
VH
p1760
sg9
V23
p1761
sg11
S'H2TX23124'
p1762
sg13
VDEM
p1763
sg15
VTX
p1764
ssS'CRIMMINS, MICHAEL'
p1765
(dp1766
g5
VCRIMMINS, MICHAEL
p1767
sg7
VH
p1768
sg9
V51
p1769
sg11
S'H8CA53019'
p1770
sg13
VREP
p1771
sg15
VCA
p1772
ssS'MANDEL, JOSH'
p1773
(dp1774
g5
VMANDEL, JOSH
p1775
sg7
VS
p1776
sg9
V00
p1777
sg11
S'S2OH00170'
p1778
sg13
VREP
p1779
sg15
VOH
p1780
ssS'GUINTA, FRANK'
p1781
(dp1782
g5
VGUINTA, FRANK
p1783
sg7
VH
p1784
sg9
V01
p1785
sg11
S'H0NH01217'
p1786
sg13
VREP
p1787
sg15
VNH
p1788
ssS'GINGRICH, NEWT'
p1789
(dp1790
g5
VGINGRICH, NEWT
p1791
sg7
VP
p1792
sg9
V00
p1793
sg11
S'P60003654'
p1794
sg13
VREP
p1795
sg15
VUS
p1796
ssS'DENHAM, JEFF'
p1797
(dp1798
g5
VDENHAM, JEFF
p1799
sg7
VH
p1800
sg9
V10
p1801
sg11
S'H0CA19173'
p1802
sg13
VREP
p1803
sg15
VCA
p1804
ssS'MATHESON, JIM'
p1805
(dp1806
g5
VMATHESON, JAMES D
p1807
sg7
VH
p1808
sg9
V04
p1809
sg11
g926
sg13
VDEM
p1810
sg15
VUT
p1811
ssS'TULSI, GABBARD'
p1812
(dp1813
g5
VGABBARD, TULSI
p1814
sg7
VH
p1815
sg9
V02
p1816
sg11
g1534
sg13
VDEM
p1817
sg15
VHI
p1818
ssS'SUTTON", "BETTY'
p1819
(dp1820
g5
VSUTTON, BETTY S
p1821
sg7
VH
p1822
sg9
V16
p1823
sg11
S'H6OH13133'
p1824
sg13
VDEM
p1825
sg15
VOH
p1826
ssS'SWALWELL, ERIC'
p1827
(dp1828
g5
VSWALWELL, ERIC MICHAEL
p1829
sg7
VH
p1830
sg9
V15
p1831
sg11
S'H2CA15094'
p1832
sg13
VDEM
p1833
sg15
VCA
p1834
ssS'BERNIE, SANDERS'
p1835
(dp1836
g5
VSANDERS, BERNARD
p1837
sg7
VS
p1838
sg9
V00
p1839
sg11
S'S4VT00033'
p1840
sg13
VIND
p1841
sg15
VVT
p1842
ssS'BOOCKVAR, KATHRYN'
p1843
(dp1844
g5
VBOOCKVAR, KATHRYN
p1845
sg7
VH
p1846
sg9
V08
p1847
sg11
S'H2PA08102'
p1848
sg13
VDEM
p1849
sg15
VPA
p1850
ssS'BLACK, DIANE'
p1851
(dp1852
g5
VBLACK, DIANE L MRS.
p1853
sg7
VH
p1854
sg9
V06
p1855
sg11
S'H0TN06257'
p1856
sg13
VREP
p1857
sg15
VTN
p1858
ssS'ELIZABETH, WARREN'
p1859
(dp1860
g5
VWARREN, ELIZABETH
p1861
sg7
VS
p1862
sg9
V00
p1863
sg11
S'S2MA00170'
p1864
sg13
VDEM
p1865
sg15
VMA
p1866
ssS'DENNIS, REHBERG'
p1867
(dp1868
g5
VREHBERG, DENNIS RAY
p1869
sg7
VS
p1870
sg9
V00
p1871
sg11
S'S6MT00097'
p1872
sg13
VREP
p1873
sg15
VMT
p1874
ssS'BROOKS, MAGGIE'
p1875
(dp1876
g5
VBROOKS, MAGGIE
p1877
sg7
VH
p1878
sg9
V25
p1879
sg11
S'H2NY25074'
p1880
sg13
VREP
p1881
sg15
VNY
p1882
ssS'MCKASKILL, CLAIRE'
p1883
(dp1884
g5
VMCCASKILL, CLAIRE
p1885
sg7
VS
p1886
sg9
V00
p1887
sg11
g1707
sg13
VDEM
p1888
sg15
VMO
p1889
ssS'HUNTSMAN, JON'
p1890
(dp1891
g5
VHUNTSMAN, JON
p1892
sg7
VP
p1893
sg9
V00
p1894
sg11
S'P20003067'
p1895
sg13
VREP
p1896
sg15
VUS
p1897
ssS'ROGERS, LEE'
p1898
(dp1899
g5
VROGERS, LEE C
p1900
sg7
VH
p1901
sg9
V25
p1902
sg11
S'H2CA25143'
p1903
sg13
VDEM
p1904
sg15
VCA
p1905
ssS'MOURDOCK, RICHARD E.'
p1906
(dp1907
g5
VMOURDOCK, RICHARD E
p1908
sg7
VS
p1909
sg9
V00
p1910
sg11
S'S2IN00083'
p1911
sg13
VREP
p1912
sg15
VIN
p1913
ssS'JON, TESTER'
p1914
(dp1915
g5
VTESTER, JON
p1916
sg7
VS
p1917
sg9
V00
p1918
sg11
S'S6MT00162'
p1919
sg13
VDEM
p1920
sg15
VMT
p1921
ssS'WRIGHTS, LEE'
p1922
(dp1923
g5
VWRIGHTS, ROGER LEE
p1924
sg7
VP
p1925
sg9
V00
p1926
sg11
S'P20002952'
p1927
sg13
VLIB
p1928
sg15
VUS
p1929
ssS'TAJ, CLAYTON'
p1930
(dp1931
g5
VCLAYTON, TAJ
p1932
sg7
VH
p1933
sg9
V30
p1934
sg11
S'H2TX30087'
p1935
sg13
VDEM
p1936
sg15
VTX
p1937
ssS'MAFFEI, DAN'
p1938
(dp1939
g5
VMAFFEI, DANIEL BENJAMIN MR.
p1940
sg7
VH
p1941
sg9
V24
p1942
sg11
S'H6NY25125'
p1943
sg13
VDEM
p1944
sg15
VNY
p1945
ssS'PERKINS, CHRIS'
p1946
(dp1947
g5
VPERKINS, CHRISTOPHER S
p1948
sg7
VH
p1949
sg9
V11
p1950
sg11
S'H2VA11149'
p1951
sg13
VREP
p1952
sg15
VVA
p1953
ssS'BALDWIN, TAMMY'
p1954
(dp1955
g5
VBALDWIN, TAMMY
p1956
sg7
VS
p1957
sg9
V00
p1958
sg11
S'S2WI00219'
p1959
sg13
VDEM
p1960
sg15
VWI
p1961
ssS'CRAVAACK, CHIP'
p1962
(dp1963
g5
VCRAVAACK, RAYMOND J MR.
p1964
sg7
VH
p1965
sg9
V08
p1966
sg11
S'H0MN08115'
p1967
sg13
VREP
p1968
sg15
VMN
p1969
ssS'BERKLEY, SHELLEY'
p1970
(dp1971
g5
VBERKLEY, SHELLEY
p1972
sg7
VS
p1973
sg9
V00
p1974
sg11
S'S2NV00209'
p1975
sg13
VDEM
p1976
sg15
VNV
p1977
ssS'WAXMAN, HENRY'
p1978
(dp1979
g5
VWAXMAN, HENRY A
p1980
sg7
VH
p1981
sg9
V33
p1982
sg11
S'H6CA24048'
p1983
sg13
VDEM
p1984
sg15
VCA
p1985
ssS'DONNELLY, JOE'
p1986
(dp1987
g5
VDONNELLY, JOSEPH S
p1988
sg7
VS
p1989
sg9
V00
p1990
sg11
S'S2IN00091'
p1991
sg13
VDEM
p1992
sg15
VIN
p1993
ssS'REHBERG, DENNIS'
p1994
(dp1995
g5
VREHBERG, DENNIS RAY
p1996
sg7
VS
p1997
sg9
V00
p1998
sg11
g1872
sg13
VREP
p1999
sg15
VMT
p2000
ssS'STRICKLAND, TONY'
p2001
(dp2002
g5
VSTRICKLAND, ANTHONY A.
p2003
sg7
VH
p2004
sg9
V26
p2005
sg11
S'H2CA26109'
p2006
sg13
VREP
p2007
sg15
VCA
p2008
ssS'MATT, DOHENY'
p2009
(dp2010
g5
VDOHENY, MATTHEW
p2011
sg7
VH
p2012
sg9
V21
p2013
sg11
S'H0NY23057'
p2014
sg13
VREP
p2015
sg15
VNY
p2016
ssS'ROB, ZERBAN'
p2017
(dp2018
g5
VZERBAN, ROB
p2019
sg7
VH
p2020
sg9
V01
p2021
sg11
S'H2WI01084'
p2022
sg13
VDEM
p2023
sg15
VWI
p2024
ssS'HEINRICH, MARTIN'
p2025
(dp2026
g5
VHEINRICH, MARTIN TREVOR
p2027
sg7
VS
p2028
sg9
V00
p2029
sg11
S'S2NM00088'
p2030
sg13
VDEM
p2031
sg15
VNM
p2032
ssS'TURNER, MICHAEL'
p2033
(dp2034
g5
VTURNER, MICHAEL R
p2035
sg7
VH
p2036
sg9
V10
p2037
sg11
S'H2OH03067'
p2038
sg13
VREP
p2039
sg15
VOH
p2040
ssS'CONNOLLY, GERALD'
p2041
(dp2042
g5
VCONNOLLY, GERRY
p2043
sg7
VH
p2044
sg9
V11
p2045
sg11
S'H8VA11062'
p2046
sg13
VDEM
p2047
sg15
VVA
p2048
ssS'LEE, MIKE'
p2049
(dp2050
g5
VLEE, MIKE
p2051
sg7
VS
p2052
sg9
V00
p2053
sg11
S'S0UT00165'
p2054
sg13
VREP
p2055
sg15
VUT
p2056
ssS'SUTTON, BETTY'
p2057
(dp2058
g5
VSUTTON, BETTY S
p2059
sg7
VH
p2060
sg9
V16
p2061
sg11
S'H6OH13133'
p2062
sg13
VDEM
p2063
sg15
VOH
p2064
ssS'LUGAR, DICK'
p2065
(dp2066
g5
VLUGAR, RICHARD G
p2067
sg7
VS
p2068
sg9
V00
p2069
sg11
g1068
sg13
VREP
p2070
sg15
VIN
p2071
ssS'CHABOT, STEVE'
p2072
(dp2073
g5
VCHABOT, STEVE
p2074
sg7
VH
p2075
sg9
V01
p2076
sg11
S'H8OH01043'
p2077
sg13
VREP
p2078
sg15
VOH
p2079
ssS'DAINES, STEVE'
p2080
(dp2081
g5
VDAINES, STEVEN
p2082
sg7
VS
p2083
sg9
V00
p2084
sg11
g1147
sg13
VREP
p2085
sg15
VMT
p2086
ssS'JEFF, FLAKE'
p2087
(dp2088
g5
VFLAKE, JEFF
p2089
sg7
VS
p2090
sg9
V00
p2091
sg11
S'S2AZ00141'
p2092
sg13
VREP
p2093
sg15
VAZ
p2094
ssS'DIXON, TIMOTHY'
p2095
(dp2096
g5
VDIXON, TIMOTHY D
p2097
sg7
VH
p2098
sg9
V08
p2099
sg11
S'H2TN08127'
p2100
sg13
VDEM
p2101
sg15
VTN
p2102
ssS'CANSECO, QUICO'
p2103
(dp2104
g5
VCANSECO, FRANCISCO RAUL QUICO R.
p2105
sg7
VH
p2106
sg9
V23
p2107
sg11
S'H4TX28046'
p2108
sg13
VREP
p2109
sg15
VTX
p2110
ssS'KERREY, BOB'
p2111
(dp2112
g5
VKERREY, J ROBERT
p2113
sg7
VS
p2114
sg9
V00
p2115
sg11
S'S8NE00067'
p2116
sg13
VDEM
p2117
sg15
VNE
p2118
ssS'BERG, RICHARD'
p2119
(dp2120
g5
VBERG, RICHARD A
p2121
sg7
VS
p2122
sg9
V00
p2123
sg11
S'S2ND00073'
p2124
sg13
VREP
p2125
sg15
VND
p2126
ssS'GIBBS, BOB'
p2127
(dp2128
g5
VGIBBS, BOB
p2129
sg7
VH
p2130
sg9
V07
p2131
sg11
S'H0OH18077'
p2132
sg13
VREP
p2133
sg15
VOH
p2134
ssS'TAMMY SUZANNE, BALDWIN'
p2135
(dp2136
g5
VBALDWIN, TAMMY
p2137
sg7
VS
p2138
sg9
V00
p2139
sg11
g1959
sg13
VDEM
p2140
sg15
VWI
p2141
ssS'SINEMA, KRYSTEN'
p2142
(dp2143
g5
VSINEMA, KYRSTEN
p2144
sg7
VH
p2145
sg9
V09
p2146
sg11
S'H2AZ09019'
p2147
sg13
VDEM
p2148
sg15
VAZ
p2149
ssS'MILLER, GARY'
p2150
(dp2151
g5
VMILLER, GARY G
p2152
sg7
VH
p2153
sg9
V31
p2154
sg11
S'H8CA41063'
p2155
sg13
VREP
p2156
sg15
VCA
p2157
ssS'CRAWFORD, RICK'
p2158
(dp2159
g5
VCRAWFORD, ERIC ALAN RICK
p2160
sg7
VH
p2161
sg9
V01
p2162
sg11
S'H0AR01083'
p2163
sg13
VREP
p2164
sg15
VAR
p2165
ssS'WILLIAMS, ROGER'
p2166
(dp2167
g5
VWILLIAMS, ROGER
p2168
sg7
VS
p2169
sg9
V00
p2170
sg11
S'S2TX00270'
p2171
sg13
VREP
p2172
sg15
VTX
p2173
ssS'BASS, CHARLIE'
p2174
(dp2175
g5
VBASS, CHARLES F.
p2176
sg7
VH
p2177
sg9
V02
p2178
sg11
g110
sg13
VREP
p2179
sg15
VNH
p2180
ssS'HOEKSTRA, PETER'
p2181
(dp2182
g5
VHOEKSTRA, PETER
p2183
sg7
VS
p2184
sg9
V00
p2185
sg11
g862
sg13
VREP
p2186
sg15
VMI
p2187
ssS'FIORINA, CARLY'
p2188
(dp2189
g5
VFIORINA, CARLY
p2190
sg7
VS
p2191
sg9
V00
p2192
sg11
S'S0CA00330'
p2193
sg13
VREP
p2194
sg15
VCA
p2195
ssS'OBAMA, BARACK'
p2196
(dp2197
g5
VOBAMA, BARACK
p2198
sg7
VP
p2199
sg9
V00
p2200
sg11
S'P80003338'
p2201
sg13
VDEM
p2202
sg15
VUS
p2203
ssS'RAESE, JOHN'
p2204
(dp2205
g5
VRAESE, JOHN REEVES
p2206
sg7
VS
p2207
sg9
V00
p2208
sg11
S'S4WV00084'
p2209
sg13
VREP
p2210
sg15
VWV
p2211
ssS'MARY, MACK'
p2212
(dp2213
g5
VBONO MACK, MARY
p2214
sg7
VH
p2215
sg9
V36
p2216
sg11
S'H8CA44034'
p2217
sg13
VREP
p2218
sg15
VCA
p2219
ssS'DUCKWORTH, TAMY'
p2220
(dp2221
g5
VDUCKWORTH, L. TAMMY
p2222
sg7
VH
p2223
sg9
V08
p2224
sg11
S'H6IL06141'
p2225
sg13
VDEM
p2226
sg15
VIL
p2227
ssS'FITZPATRICK, MIKE'
p2228
(dp2229
g5
VFITZPATRICK, MICHAEL G.
p2230
sg7
VH
p2231
sg9
V08
p2232
sg11
S'H4PA08074'
p2233
sg13
VREP
p2234
sg15
VPA
p2235
ssS'NAN, HAYWORTH'
p2236
(dp2237
g5
VHAYWORTH, NAN
p2238
sg7
VH
p2239
sg9
V18
p2240
sg11
g831
sg13
VREP
p2241
sg15
VNY
p2242
ssS'LILJENQUIST, DAN'
p2243
(dp2244
g5
VLILJENQUIST, DAN
p2245
sg7
VS
p2246
sg9
V00
p2247
sg11
S'S2UT00195'
p2248
sg13
VREP
p2249
sg15
VUT
p2250
ssS'MATHESON", "JAMES'
p2251
(dp2252
g5
VMATHESON, JAMES D
p2253
sg7
VH
p2254
sg9
V04
p2255
sg11
g926
sg13
VDEM
p2256
sg15
VUT
p2257
ssS'BENISHEK, DAN'
p2258
(dp2259
g5
VBENISHEK, DANIEL J. M.D.
p2260
sg7
VH
p2261
sg9
V01
p2262
sg11
S'H0MI01088'
p2263
sg13
VREP
p2264
sg15
VMI
p2265
ssS'ROMNEY, MITT'
p2266
(dp2267
g5
VROMNEY, MITT / RYAN, PAUL D.
p2268
sg7
VP
p2269
sg9
V00
p2270
sg11
S'P80003353'
p2271
sg13
VREP
p2272
sg15
VUS
p2273
ssS'RAHALL, NICK'
p2274
(dp2275
g5
VRAHALL, NICK JOE II
p2276
sg7
VH
p2277
sg9
V03
p2278
sg11
S'H6WV04057'
p2279
sg13
VDEM
p2280
sg15
VWV
p2281
ssS'FRANKEL, LOIS'
p2282
(dp2283
g5
VFRANKEL, LOIS J.
p2284
sg7
VH
p2285
sg9
V22
p2286
sg11
S'H2FL14053'
p2287
sg13
VDEM
p2288
sg15
VFL
p2289
ssS'PARKER, VERNON'
p2290
(dp2291
g5
VVERNON, JOHN D
p2292
sg7
VS
p2293
sg9
V00
p2294
sg11
S'S2PA00208'
p2295
sg13
VREP
p2296
sg15
VPA
p2297
ssS'BERG, RICK'
p2298
(dp2299
g5
VBERG, RICHARD A
p2300
sg7
VS
p2301
sg9
V00
p2302
sg11
g2124
sg13
VREP
p2303
sg15
VND
p2304
ssS'OWENS, BILL'
p2305
(dp2306
g5
VOWENS, WILLIAM
p2307
sg7
VH
p2308
sg9
V21
p2309
sg11
g958
sg13
VDEM
p2310
sg15
VNY
p2311
ssS'BUERKLE, ANNE MARIE'
p2312
(dp2313
g5
VBUERKLE, ANN MARIE
p2314
sg7
VH
p2315
sg9
V24
p2316
sg11
S'H0NY25078'
p2317
sg13
VREP
p2318
sg15
VNY
p2319
ssS'FOSTER, BILL'
p2320
(dp2321
g5
VFOSTER, G. WILLIAM (BILL)
p2322
sg7
VH
p2323
sg9
V11
p2324
sg11
S'H8IL14067'
p2325
sg13
VDEM
p2326
sg15
VIL
p2327
ssS'BARBARA, LEE'
p2328
(dp2329
g5
VLEE, BARBARA
p2330
sg7
VH
p2331
sg9
V13
p2332
sg11
S'H8CA09060'
p2333
sg13
VDEM
p2334
sg15
VCA
p2335
ssS'FLAKE, JEFFRY'
p2336
(dp2337
g5
VFLAKE, JEFF
p2338
sg7
VS
p2339
sg9
V00
p2340
sg11
g2092
sg13
VREP
p2341
sg15
VAZ
p2342
ssS'COSTELLO, FREDRICK'
p2343
(dp2344
g5
VCOSTELLO, FREDRICK WILLIAM
p2345
sg7
VH
p2346
sg9
V06
p2347
sg11
S'H2FL06158'
p2348
sg13
VREP
p2349
sg15
VFL
p2350
ssS'COFFMAN, MIKE'
p2351
(dp2352
g5
VCOFFMAN, MICHAEL
p2353
sg7
VH
p2354
sg9
V06
p2355
sg11
g12
sg13
VREP
p2356
sg15
VCO
p2357
ssS'BROWN, SCOTT'
p2358
(dp2359
g5
VBROWN, SCOTT P
p2360
sg7
VS
p2361
sg9
V00
p2362
sg11
S'S0MA00109'
p2363
sg13
VREP
p2364
sg15
VMA
p2365
ssS'BUSTOS, CHERI'
p2366
(dp2367
g5
VBUSTOS, CHERI
p2368
sg7
VH
p2369
sg9
V17
p2370
sg11
S'H2IL17071'
p2371
sg13
VDEM
p2372
sg15
VIL
p2373
ssS'KEADLE, SCOTT'
p2374
(dp2375
g5
VKEADLE, SCOTT
p2376
sg7
VH
p2377
sg9
V08
p2378
sg11
S'H0NC10151'
p2379
sg13
VREP
p2380
sg15
VNC
p2381
ssS'COORS, JOE'
p2382
(dp2383
g5
VCOORS, JOSEPH JR
p2384
sg7
VH
p2385
sg9
V07
p2386
sg11
S'H2CO07121'
p2387
sg13
VREP
p2388
sg15
VCO
p2389
ssS'GAILLOT, JACQUES'
p2390
(dp2391
g5
VGAILLOT, JACQUES RENE JR
p2392
sg7
VH
p2393
sg9
V03
p2394
sg11
S'H2FL28012'
p2395
sg13
VDEM
p2396
sg15
VFL
p2397
ssS'PAUL, COOK'
p2398
(dp2399
g5
VCOOK, PAUL
p2400
sg7
VH
p2401
sg9
V08
p2402
sg11
S'H2CA08164'
p2403
sg13
VREP
p2404
sg15
VCA
p2405
ssS'SHEA PORTER, CAROL'
p2406
(dp2407
g5
VSHEA-PORTER, CAROL
p2408
sg7
VH
p2409
sg9
V01
p2410
sg11
g571
sg13
VDEM
p2411
sg15
VNH
p2412
ssS'DANIEL, BENISHEK'
p2413
(dp2414
g5
VBENISHEK, DANIEL J. M.D.
p2415
sg7
VH
p2416
sg9
V01
p2417
sg11
g785
sg13
VREP
p2418
sg15
VMI
p2419
ssS'CARDON", "WIL'
p2420
(dp2421
g5
VCARDON, WILFORD R
p2422
sg7
VS
p2423
sg9
V00
p2424
sg11
S'S2AZ00190'
p2425
sg13
VREP
p2426
sg15
VAZ
p2427
ssS'TETALMAN, JERRY'
p2428
(dp2429
g5
VTETALMAN, JERRY
p2430
sg7
VH
p2431
sg9
V49
p2432
sg11
S'H2CA49218'
p2433
sg13
VDEM
p2434
sg15
VCA
p2435
ssS'BROWNLEY, JULIA'
p2436
(dp2437
g5
VBROWNLEY, JULIA
p2438
sg7
VH
p2439
sg9
V26
p2440
sg11
S'H2CA00120'
p2441
sg13
VDEM
p2442
sg15
VCA
p2443
ssS'COOK, PAUL'
p2444
(dp2445
g5
VCOOK, PAUL
p2446
sg7
VH
p2447
sg9
V08
p2448
sg11
S'H2CA08164'
p2449
sg13
VREP
p2450
sg15
VCA
p2451
ssS'VANN, KIM'
p2452
(dp2453
g5
VDOLBOW VANN, KIMBERLY
p2454
sg7
VH
p2455
sg9
V03
p2456
sg11
S'H2CA03090'
p2457
sg13
VREP
p2458
sg15
VCA
p2459
ssS'CHANDLER, BENJAMIN'
p2460
(dp2461
g5
VCHANDLER, A.B. III
p2462
sg7
VH
p2463
sg9
V06
p2464
sg11
S'H4KY06072'
p2465
sg13
VDEM
p2466
sg15
VKY
p2467
ssS'WEST, ALLEN'
p2468
(dp2469
g5
VWEST, ALLEN B MR.
p2470
sg7
VH
p2471
sg9
V18
p2472
sg11
S'H8FL22038'
p2473
sg13
VREP
p2474
sg15
VFL
p2475
ssS'FISCHER, DEBRA'
p2476
(dp2477
g5
VFISCHER, DEBRA S
p2478
sg7
VS
p2479
sg9
V00
p2480
sg11
g902
sg13
VREP
p2481
sg15
VNE
p2482
ssS'CARDON, WILFORD'
p2483
(dp2484
g5
VCARDON, WILFORD R
p2485
sg7
VS
p2486
sg9
V00
p2487
sg11
g2425
sg13
VREP
p2488
sg15
VAZ
p2489
ssS'MCMORRIS RODGERS, CATHY'
p2490
(dp2491
g5
VRODGERS, CATHY MCMORRIS
p2492
sg7
VH
p2493
sg9
V05
p2494
sg11
S'H4WA05077'
p2495
sg13
VREP
p2496
sg15
VWA
p2497
ssS'LAWSON, ALFRED'
p2498
(dp2499
g5
VLAWSON, ALFRED J JR
p2500
sg7
VH
p2501
sg9
V02
p2502
sg11
S'H0FL02086'
p2503
sg13
VDEM
p2504
sg15
VFL
p2505
ssS'NELSON, BEN'
p2506
(dp2507
g5
VNELSON, E BENJAMIN
p2508
sg7
VS
p2509
sg9
V00
p2510
sg11
S'S6NE00095'
p2511
sg13
VDEM
p2512
sg15
VNE
p2513
ssS'HATCH, ORRIN'
p2514
(dp2515
g5
VHATCH, ORRIN G
p2516
sg7
VS
p2517
sg9
V00
p2518
sg11
S'S6UT00063'
p2519
sg13
VREP
p2520
sg15
VUT
p2521
ssS'BACHUS, SPENCER'
p2522
(dp2523
g5
VBACHUS, SPENCER T III
p2524
sg7
VH
p2525
sg9
V06
p2526
sg11
S'H2AL06035'
p2527
sg13
VREP
p2528
sg15
VAL
p2529
ssS'PETER, DEFAZIO'
p2530
(dp2531
g5
VDEFAZIO, PETER A
p2532
sg7
VH
p2533
sg9
V04
p2534
sg11
S'H6OR04047'
p2535
sg13
VDEM
p2536
sg15
VOR
p2537
ssS'JOHNSON, GARY'
p2538
(dp2539
g5
VJOHNSON, GARY EARL
p2540
sg7
VP
p2541
sg9
V00
p2542
sg11
S'P20002671'
p2543
sg13
VLIB
p2544
sg15
VUS
p2545
ssS'LINGLE, LINDA'
p2546
(dp2547
g5
VLINGLE, LINDA
p2548
sg7
VS
p2549
sg9
V00
p2550
sg11
S'S2HI00114'
p2551
sg13
VREP
p2552
sg15
VHI
p2553
ssS'BERA, AMERISH'
p2554
(dp2555
g5
VBERA, AMERISH
p2556
sg7
VH
p2557
sg9
V07
p2558
sg11
S'H0CA03078'
p2559
sg13
VDEM
p2560
sg15
VCA
p2561
ssS'HOVDE, ERIC'
p2562
(dp2563
g5
VHOVDE, ERIC D
p2564
sg7
VS
p2565
sg9
V00
p2566
sg11
S'S2WI00268'
p2567
sg13
VREP
p2568
sg15
VWI
p2569
ssS'MALONEY, SEAN PATRICK'
p2570
(dp2571
g5
VMALONEY, SEAN PATRICK
p2572
sg7
VH
p2573
sg9
V18
p2574
sg11
g1322
sg13
VDEM
p2575
sg15
VNY
p2576
ssS'BERKELEY, SHELLEY'
p2577
(dp2578
g5
VBERKLEY, SHELLEY
p2579
sg7
VS
p2580
sg9
V00
p2581
sg11
S'S2NV00209'
p2582
sg13
VDEM
p2583
sg15
VNV
p2584
ssS'HOCHUL, KATHLEEN'
p2585
(dp2586
g5
VHOCHUL, KATHLEEN COURTNEY
p2587
sg7
VH
p2588
sg9
V27
p2589
sg11
S'H2NY00036'
p2590
sg13
VDEM
p2591
sg15
VNY
p2592
ssS'MACK, CONNIE'
p2593
(dp2594
g5
VMACK, CONNIE
p2595
sg7
VS
p2596
sg9
V00
p2597
sg11
S'S2FL00334'
p2598
sg13
VREP
p2599
sg15
VFL
p2600
ssS'WALZ, TIM'
p2601
(dp2602
g5
VWALZ, TIMOTHY J.
p2603
sg7
VH
p2604
sg9
V01
p2605
sg11
S'H6MN01174'
p2606
sg13
VDEM
p2607
sg15
VMN
p2608
ssS'SUE, THORN'
p2609
(dp2610
g5
VTHORN, SUSAN CAROL
p2611
sg7
VH
p2612
sg9
V01
p2613
sg11
S'H2WV01094'
p2614
sg13
VDEM
p2615
sg15
VWV
p2616
ssS'OBAMA (2012), BARACK'
p2617
(dp2618
g5
VOBAMA, BARACK
p2619
sg7
VP
p2620
sg9
V00
p2621
sg11
g793
sg13
VDEM
p2622
sg15
VUS
p2623
ssS'LOWENTHAL, ALAN'
p2624
(dp2625
g5
VLOWENTHAL, ALAN
p2626
sg7
VH
p2627
sg9
V47
p2628
sg11
S'H2CA00104'
p2629
sg13
VDEM
p2630
sg15
VCA
p2631
ssS'GOSAR, PAUL'
p2632
(dp2633
g5
VGOSAR, PAUL ANTHONY
p2634
sg7
VH
p2635
sg9
V04
p2636
sg11
S'H0AZ01259'
p2637
sg13
VREP
p2638
sg15
VAZ
p2639
ssS'GRANTHAM, TRAVIS'
p2640
(dp2641
g5
VGRANTHAM, TRAVIS W.
p2642
sg7
VH
p2643
sg9
V09
p2644
sg11
S'H2AZ06155'
p2645
sg13
VREP
p2646
sg15
VAZ
p2647
ssS'KREITLOW, PAT'
p2648
(dp2649
g5
VKREITLOW, PATRICK
p2650
sg7
VH
p2651
sg9
V07
p2652
sg11
S'H2WI07065'
p2653
sg13
VDEM
p2654
sg15
VWI
p2655
ssS'GRIFFIN, JOHN'
p2656
(dp2657
g5
VGRIFFIN, JOHN TIMOTHY
p2658
sg7
VH
p2659
sg9
V02
p2660
sg11
S'H0AR02107'
p2661
sg13
VREP
p2662
sg15
VAR
p2663
ssS'LAMALFA, DOUG'
p2664
(dp2665
g5
VLAMALFA, DOUG
p2666
sg7
VH
p2667
sg9
V01
p2668
sg11
S'H2CA02142'
p2669
sg13
VREP
p2670
sg15
VCA
p2671
ssS'CHANDLER, BEN'
p2672
(dp2673
g5
VCHANDLER, A.B. III
p2674
sg7
VH
p2675
sg9
V06
p2676
sg11
g2465
sg13
VDEM
p2677
sg15
VKY
p2678
ssS'HECK, JOSEPH'
p2679
(dp2680
g5
VHECK, JOE
p2681
sg7
VH
p2682
sg9
V03
p2683
sg11
g405
sg13
VREP
p2684
sg15
VNV
p2685
ssS'LANGE, BEN'
p2686
(dp2687
g5
VLANGE, BEN
p2688
sg7
VH
p2689
sg9
V01
p2690
sg11
S'H0IA01117'
p2691
sg13
VREP
p2692
sg15
VIA
p2693
ssS'PEARCE, STEVE'
p2694
(dp2695
g5
VPEARCE, STEVE
p2696
sg7
VS
p2697
sg9
V00
p2698
sg11
S'S0NM00041'
p2699
sg13
VREP
p2700
sg15
VNM
p2701
ssS'HARRIS, ANDY'
p2702
(dp2703
g5
VHARRIS, ANDREW P
p2704
sg7
VH
p2705
sg9
V01
p2706
sg11
S'H8MD01094'
p2707
sg13
VREP
p2708
sg15
VMD
p2709
ssS'CLARKE, HANSEN'
p2710
(dp2711
g5
VCLARKE, HANSEN
p2712
sg7
VH
p2713
sg9
V14
p2714
sg11
S'H0MI13398'
p2715
sg13
VDEM
p2716
sg15
VMI
p2717
ssS'KOSTER, JOHN'
p2718
(dp2719
g5
VKOSTER, JOHN
p2720
sg7
VH
p2721
sg9
V01
p2722
sg11
S'H0WA02098'
p2723
sg13
VREP
p2724
sg15
VWA
p2725
ssS"D'AMBOISE, SCOTT"
p2726
(dp2727
g5
VD'AMBOISE, LAURENCE SCOTT
p2728
sg7
VS
p2729
sg9
V00
p2730
sg11
S'S2ME00042'
p2731
sg13
VREP
p2732
sg15
VME
p2733
ssS'HOCHUL, KATHY'
p2734
(dp2735
g5
VHOCHUL, KATHLEEN COURTNEY
p2736
sg7
VH
p2737
sg9
V27
p2738
sg11
S'H2NY00036'
p2739
sg13
VDEM
p2740
sg15
VNY
p2741
ssS'RICE, TOM'
p2742
(dp2743
g5
VRICE, TOM
p2744
sg7
VH
p2745
sg9
V07
p2746
sg11
S'H2SC07066'
p2747
sg13
VREP
p2748
sg15
VSC
p2749
ssS'NEWT, GINGRICH'
p2750
(dp2751
g5
VGINGRICH, NEWT
p2752
sg7
VP
p2753
sg9
V00
p2754
sg11
S'P60003654'
p2755
sg13
VREP
p2756
sg15
VUS
p2757
ssS'MIKLOSI, JOE'
p2758
(dp2759
g5
VMIKLOSI, JOE
p2760
sg7
VH
p2761
sg9
V06
p2762
sg11
S'H2CO06123'
p2763
sg13
VDEM
p2764
sg15
VCO
p2765
ssS'PLUMMER, JASON'
p2766
(dp2767
g5
VPLUMMER, JASON
p2768
sg7
VH
p2769
sg9
V12
p2770
sg11
S'H2IL12098'
p2771
sg13
VREP
p2772
sg15
VIL
p2773
ssS'SCHILLING, BOBBY'
p2774
(dp2775
g5
VSCHILLING, ROBERT T.
p2776
sg7
VH
p2777
sg9
V17
p2778
sg11
S'H0IL17059'
p2779
sg13
VREP
p2780
sg15
VIL
p2781
ssS'BOEHNER, JOHN'
p2782
(dp2783
g5
VBOEHNER, JOHN A
p2784
sg7
VH
p2785
sg9
V08
p2786
sg11
S'H0OH08029'
p2787
sg13
VREP
p2788
sg15
VOH
p2789
ssS'RIBBLE, REID'
p2790
(dp2791
g5
VRIBBLE, REID
p2792
sg7
VH
p2793
sg9
V08
p2794
sg11
S'H0WI08075'
p2795
sg13
VREP
p2796
sg15
VWI
p2797
ssS'DAUGHERTY, RICK'
p2798
(dp2799
g5
VDAUGHERTY, RICHARD D
p2800
sg7
VH
p2801
sg9
V15
p2802
sg11
S'H2PA15099'
p2803
sg13
VDEM
p2804
sg15
VPA
p2805
ssS'SMITH, TOM'
p2806
(dp2807
g5
VSMITH, TOM
p2808
sg7
VS
p2809
sg9
V00
p2810
sg11
S'S2PA00224'
p2811
sg13
VREP
p2812
sg15
VPA
p2813
ssS'VEASEY, MARC'
p2814
(dp2815
g5
VVEASEY, MARC ALLISON
p2816
sg7
VH
p2817
sg9
V33
p2818
sg11
S'H2TX33073'
p2819
sg13
VDEM
p2820
sg15
VTX
p2821
ssS'WEBSTER, DANIEL'
p2822
(dp2823
g5
VWEBSTER, DANIEL
p2824
sg7
VH
p2825
sg9
V10
p2826
sg11
S'H0FL08208'
p2827
sg13
VREP
p2828
sg15
VFL
p2829
ssS'SHERMAN, BRAD'
p2830
(dp2831
g5
VSHERMAN, BRAD
p2832
sg7
VH
p2833
sg9
V30
p2834
sg11
S'H6CA24113'
p2835
sg13
VDEM
p2836
sg15
VCA
p2837
ssS'HORSFORD", "STEVEN'
p2838
(dp2839
g5
VHORSFORD, STEVEN ALEXZANDER
p2840
sg7
VH
p2841
sg9
V04
p2842
sg11
S'H2NV04011'
p2843
sg13
VDEM
p2844
sg15
VNV
p2845
ssS'CORKER, ROBERT'
p2846
(dp2847
g5
VCORKER, ROBERT P JR
p2848
sg7
VS
p2849
sg9
V00
p2850
sg11
S'S6TN00216'
p2851
sg13
VREP
p2852
sg15
VTN
p2853
ssS'STEELMAN, SARAH'
p2854
(dp2855
g5
VSTEELMAN, SARAH H
p2856
sg7
VS
p2857
sg9
V00
p2858
sg11
S'S2MO00403'
p2859
sg13
VREP
p2860
sg15
VMO
p2861
ssS'RUNYAN, JON'
p2862
(dp2863
g5
VRUNYAN, JON
p2864
sg7
VH
p2865
sg9
V03
p2866
sg11
S'H0NJ03153'
p2867
sg13
VREP
p2868
sg15
VNJ
p2869
ssS'RENACCI, JAMES'
p2870
(dp2871
g5
VRENACCI, JAMES B
p2872
sg7
VH
p2873
sg9
V16
p2874
sg11
g325
sg13
VREP
p2875
sg15
VOH
p2876
ssS'COORS, JOSEPH'
p2877
(dp2878
g5
VCOORS, JOSEPH JR
p2879
sg7
VH
p2880
sg9
V07
p2881
sg11
g2387
sg13
VREP
p2882
sg15
VCO
p2883
ssS'CROOKS, DAVE'
p2884
(dp2885
g5
VCROOKS, DAVID L
p2886
sg7
VH
p2887
sg9
V08
p2888
sg11
g22
sg13
VDEM
p2889
sg15
VIN
p2890
ssS'SUZAN, DELBENE'
p2891
(dp2892
g5
VDELBENE, SUZAN K
p2893
sg7
VH
p2894
sg9
V01
p2895
sg11
g94
sg13
VDEM
p2896
sg15
VWA
p2897
ssS'GRIMM, MICHAEL'
p2898
(dp2899
g5
VGRIMM, MICHAEL
p2900
sg7
VH
p2901
sg9
V13
p2902
sg11
S'H0NY13074'
p2903
sg13
VREP
p2904
sg15
VNY
p2905
ssS'WARREN, ELIZABETH'
p2906
(dp2907
g5
VWARREN, ELIZABETH
p2908
sg7
VS
p2909
sg9
V00
p2910
sg11
S'S2MA00170'
p2911
sg13
VDEM
p2912
sg15
VMA
p2913
ssS'BERMAN, HOWARD'
p2914
(dp2915
g5
VBERMAN, HOWARD L
p2916
sg7
VH
p2917
sg9
V30
p2918
sg11
S'H2CA26026'
p2919
sg13
VDEM
p2920
sg15
VCA
p2921
ssS'BUERKLE, ANN MARIE'
p2922
(dp2923
g5
VBUERKLE, ANN MARIE
p2924
sg7
VH
p2925
sg9
V24
p2926
sg11
S'H0NY25078'
p2927
sg13
VREP
p2928
sg15
VNY
p2929
ssS'JOHNSON, BILL'
p2930
(dp2931
g5
VJOHNSON, BILL
p2932
sg7
VH
p2933
sg9
V06
p2934
sg11
S'H0OH06189'
p2935
sg13
VREP
p2936
sg15
VOH
p2937
ssS'HORSFORD, STEVEN'
p2938
(dp2939
g5
VHORSFORD, STEVEN ALEXZANDER
p2940
sg7
VH
p2941
sg9
V04
p2942
sg11
g2843
sg13
VDEM
p2943
sg15
VNV
p2944
ssS'CANSECO, FRANCISCO'
p2945
(dp2946
g5
VCANSECO, FRANCISCO RAUL QUICO R.
p2947
sg7
VH
p2948
sg9
V23
p2949
sg11
S'H4TX28046'
p2950
sg13
VREP
p2951
sg15
VTX
p2952
ssS'ROMNEY, W MITT'
p2953
(dp2954
g5
VROMNEY, MITT / RYAN, PAUL D.
p2955
sg7
VP
p2956
sg9
V00
p2957
sg11
g309
sg13
VREP
p2958
sg15
VUS
p2959
ssS'CHRISTIE, VILSACK'
p2960
(dp2961
g5
VVILSACK, CHRISTIE
p2962
sg7
VH
p2963
sg9
V04
p2964
sg11
S'H2IA04117'
p2965
sg13
VDEM
p2966
sg15
VIA
p2967
ssS'REILLY, CHRIS'
p2968
(dp2969
g5
VREILLY, CHRISTOPHER B
p2970
sg7
VH
p2971
sg9
V04
p2972
sg11
S'H0PA19095'
p2973
sg13
VREP
p2974
sg15
VPA
p2975
ssS'HERGER, WALLY'
p2976
(dp2977
g5
VHERGER, WALLY
p2978
sg7
VH
p2979
sg9
V02
p2980
sg11
S'H6CA02010'
p2981
sg13
VREP
p2982
sg15
VCA
p2983
ssS'RIGELL, EDWARD'
p2984
(dp2985
g5
VRIGELL, EDWARD SCOTT MR.
p2986
sg7
VH
p2987
sg9
V02
p2988
sg11
g165
sg13
VREP
p2989
sg15
VVA
p2990
ssS'BOSWELL, LEONARD'
p2991
(dp2992
g5
VBOSWELL, LEONARD L.
p2993
sg7
VH
p2994
sg9
V03
p2995
sg11
S'H6IA03144'
p2996
sg13
VDEM
p2997
sg15
VIA
p2998
ssS'KELLY, JESSE'
p2999
(dp3000
g5
VKELLY, JESSE
p3001
sg7
VH
p3002
sg9
V02
p3003
sg11
S'H0AZ08015'
p3004
sg13
VREP
p3005
sg15
VAZ
p3006
ssS'CRAMER, KEVIN'
p3007
(dp3008
g5
VCRAMER, KEVIN
p3009
sg7
VH
p3010
sg9
V00
p3011
sg11
S'H0ND01026'
p3012
sg13
VREP
p3013
sg15
VND
p3014
ssS'BRIAN, BILBRAY'
p3015
(dp3016
g5
VBILBRAY, BRIAN PHILLIP
p3017
sg7
VH
p3018
sg9
V52
p3019
sg11
S'H4CA49032'
p3020
sg13
VREP
p3021
sg15
VCA
p3022
ssS'BILBRAY, BRIAN'
p3023
(dp3024
g5
VBILBRAY, BRIAN PHILLIP
p3025
sg7
VH
p3026
sg9
V52
p3027
sg11
S'H4CA49032'
p3028
sg13
VREP
p3029
sg15
VCA
p3030
ssS'BRUCE, BRALEY'
p3031
(dp3032
g5
VBRALEY, BRUCE L
p3033
sg7
VH
p3034
sg9
V01
p3035
sg11
g1218
sg13
VDEM
p3036
sg15
VIA
p3037
ssS'BENTIVOLIO, KERRY'
p3038
(dp3039
g5
VBENTIVOLIO, KERRY
p3040
sg7
VH
p3041
sg9
V11
p3042
sg11
S'H2MI11133'
p3043
sg13
VREP
p3044
sg15
VMI
p3045
ssS'DELONG, GARY'
p3046
(dp3047
g5
VDELONG, GARY
p3048
sg7
VH
p3049
sg9
V47
p3050
sg11
S'H2CA47105'
p3051
sg13
VREP
p3052
sg15
VCA
p3053
ssS'WILSON, HEATHER'
p3054
(dp3055
g5
VWILSON, HEATHER A
p3056
sg7
VS
p3057
sg9
V00
p3058
sg11
S'S8NM00168'
p3059
sg13
VREP
p3060
sg15
VNM
p3061
ssS'PERLMUTTER, ED'
p3062
(dp3063
g5
VPERLMUTTER, EDWIN G
p3064
sg7
VH
p3065
sg9
V07
p3066
sg11
S'H6CO07023'
p3067
sg13
VDEM
p3068
sg15
VCO
p3069
ssS'CRAMER, KEVIN J'
p3070
(dp3071
g5
VCRAMER, KEVIN
p3072
sg7
VH
p3073
sg9
V00
p3074
sg11
g3012
sg13
VREP
p3075
sg15
VND
p3076
ssS'BUCSHON, LARRY'
p3077
(dp3078
g5
VBUCSHON, LARRY D
p3079
sg7
VH
p3080
sg9
V08
p3081
sg11
S'H0IN08114'
p3082
sg13
VREP
p3083
sg15
VIN
p3084
ssS'REHBERG, DENNY'
p3085
(dp3086
g5
VREHBERG, DENNIS RAY
p3087
sg7
VS
p3088
sg9
V00
p3089
sg11
g1872
sg13
VREP
p3090
sg15
VMT
p3091
ssS'REED, TOM'
p3092
(dp3093
g5
VREED, THOMAS W II
p3094
sg7
VH
p3095
sg9
V23
p3096
sg11
S'H0NY29054'
p3097
sg13
VREP
p3098
sg15
VNY
p3099
ssS'COLLINS, CHRIS'
p3100
(dp3101
g5
VCOLLINS, CHRISTOPHER C
p3102
sg7
VH
p3103
sg9
V27
p3104
sg11
g1637
sg13
VREP
p3105
sg15
VNY
p3106
ssS'OCEGUERA, JOHN'
p3107
(dp3108
g5
VOCEGUERA, JOHN
p3109
sg7
VH
p3110
sg9
V03
p3111
sg11
S'H2NV00035'
p3112
sg13
VDEM
p3113
sg15
VNV
p3114
ssS'VILSACK, CHRISTIE'
p3115
(dp3116
g5
VVILSACK, CHRISTIE
p3117
sg7
VH
p3118
sg9
V04
p3119
sg11
S'H2IA04117'
p3120
sg13
VDEM
p3121
sg15
VIA
p3122
ssS'SANTORUM, RICHARD'
p3123
(dp3124
g5
VSANTORUM, RICHARD J.
p3125
sg7
VP
p3126
sg9
V00
p3127
sg11
S'P20002721'
p3128
sg13
VREP
p3129
sg15
VUS
p3130
ssS'AGUILAR, PETE'
p3131
(dp3132
g5
VAGUILAR, PETE
p3133
sg7
VH
p3134
sg9
V31
p3135
sg11
S'H2CA31125'
p3136
sg13
VDEM
p3137
sg15
VCA
p3138
ssS'UPTON, FREDERICK'
p3139
(dp3140
g5
VUPTON, FREDERICK STEPHEN
p3141
sg7
VH
p3142
sg9
V06
p3143
sg11
S'H6MI04113'
p3144
sg13
VREP
p3145
sg15
VMI
p3146
ssS'BONAMICI, SUZANNE'
p3147
(dp3148
g5
VBONAMICI, SUZANNE
p3149
sg7
VH
p3150
sg9
V01
p3151
sg11
S'H2OR01133'
p3152
sg13
VDEM
p3153
sg15
VOR
p3154
ssS'DENNY, HECK'
p3155
(dp3156
g5
VHECK, DENNIS
p3157
sg7
VH
p3158
sg9
V10
p3159
sg11
S'H0WA03161'
p3160
sg13
VDEM
p3161
sg15
VWA
p3162
ssS'OBAMA, BARRACK'
p3163
(dp3164
g5
VOBAMA, BARACK
p3165
sg7
VP
p3166
sg9
V00
p3167
sg11
g793
sg13
VDEM
p3168
sg15
VUS
p3169
ssS'KIRSTEN, GILLIBRAND'
p3170
(dp3171
g5
VGILLIBRAND, KIRSTEN ELIZABETH
p3172
sg7
VS
p3173
sg9
V00
p3174
sg11
S'S0NY00410'
p3175
sg13
VDEM
p3176
sg15
VNY
p3177
ssS'CAMP, DAVID'
p3178
(dp3179
g5
VCAMP, DAVID LEE
p3180
sg7
VH
p3181
sg9
V04
p3182
sg11
S'H0MI10071'
p3183
sg13
VREP
p3184
sg15
VMI
p3185
ssS'MAGGIE, BROOKS'
p3186
(dp3187
g5
VBROOKS, MAGGIE
p3188
sg7
VH
p3189
sg9
V25
p3190
sg11
g1880
sg13
VREP
p3191
sg15
VNY
p3192
ssS'IMUS, GREGG'
p3193
(dp3194
g5
VIMUS, GREGG
p3195
sg7
VH
p3196
sg9
V08
p3197
sg11
S'H2CA41116'
p3198
sg13
VREP
p3199
sg15
VCA
p3200
ssS'DUTTON, BOB'
p3201
(dp3202
g5
VDUTTON, ROBERT BOB
p3203
sg7
VH
p3204
sg9
V31
p3205
sg11
S'H2CA31133'
p3206
sg13
VREP
p3207
sg15
VCA
p3208
ssS'RON, P'
p3209
(dp3210
g5
VPAUL, RON
p3211
sg7
VP
p3212
sg9
V00
p3213
sg11
S'P80000748'
p3214
sg13
VREP
p3215
sg15
VUS
p3216
ssS'ALAN, GRAYSON'
p3217
(dp3218
g5
VGRAYSON, ALAN MARK
p3219
sg7
VH
p3220
sg9
V09
p3221
sg11
S'H6FL08213'
p3222
sg13
VDEM
p3223
sg15
VFL
p3224
ssS'TESTER, JON'
p3225
(dp3226
g5
VTESTER, JON
p3227
sg7
VS
p3228
sg9
V00
p3229
sg11
S'S6MT00162'
p3230
sg13
VDEM
p3231
sg15
VMT
p3232
ssS'SANDERS, BERNARD'
p3233
(dp3234
g5
VSANDERS, BERNARD
p3235
sg7
VS
p3236
sg9
V00
p3237
sg11
g1840
sg13
VIND
p3238
sg15
VVT
p3239
ssS'STABENOW, DEBBIE'
p3240
(dp3241
g5
VSTABENOW, DEBBIE
p3242
sg7
VS
p3243
sg9
V00
p3244
sg11
S'S8MI00281'
p3245
sg13
VDEM
p3246
sg15
VMI
p3247
ssS'HASNER, ADAM'
p3248
(dp3249
g5
VHASNER, ADAM
p3250
sg7
VS
p3251
sg9
V00
p3252
sg11
S'S2FL00250'
p3253
sg13
VREP
p3254
sg15
VFL
p3255
ssS'ALLEN, GEORGE'
p3256
(dp3257
g5
VALLEN, GEORGE
p3258
sg7
VS
p3259
sg9
V00
p3260
sg11
S'S8VA00214'
p3261
sg13
VREP
p3262
sg15
VVA
p3263
ssS'LEWIS, JOHN R'
p3264
(dp3265
g5
VLEWIS, JOHN R.
p3266
sg7
VH
p3267
sg9
V05
p3268
sg11
S'H6GA05217'
p3269
sg13
VDEM
p3270
sg15
VGA
p3271
ssS'CORNILLES, ROBERT'
p3272
(dp3273
g5
VCORNILLES, ROBERT
p3274
sg7
VH
p3275
sg9
V01
p3276
sg11
S'H0OR01095'
p3277
sg13
VREP
p3278
sg15
VOR
p3279
ssS'DONALDS, BYRON'
p3280
(dp3281
g5
VDONALDS, BYRON
p3282
sg7
VH
p3283
sg9
V19
p3284
sg11
S'H2FL14186'
p3285
sg13
VREP
p3286
sg15
VFL
p3287
ssS'TAMMY, DUCKWORTH'
p3288
(dp3289
g5
VDUCKWORTH, L. TAMMY
p3290
sg7
VH
p3291
sg9
V08
p3292
sg11
S'H6IL06141'
p3293
sg13
VDEM
p3294
sg15
VIL
p3295
ssS'CRITZ, MARK'
p3296
(dp3297
g5
VCRITZ, MARK
p3298
sg7
VH
p3299
sg9
V12
p3300
sg11
S'H0PA12132'
p3301
sg13
VDEM
p3302
sg15
VPA
p3303
ssS'PETERS, SCOTT'
p3304
(dp3305
g5
VPETERS, SCOTT
p3306
sg7
VH
p3307
sg9
V52
p3308
sg11
S'H2CA52089'
p3309
sg13
VDEM
p3310
sg15
VCA
p3311
ssS'DIANNE, FEINSTEIN'
p3312
(dp3313
g5
VFEINSTEIN, DIANNE
p3314
sg7
VS
p3315
sg9
V00
p3316
sg11
g261
sg13
VDEM
p3317
sg15
VCA
p3318
ssS'HIRONO, MAZIE'
p3319
(dp3320
g5
VHIRONO, MAZIE K
p3321
sg7
VS
p3322
sg9
V00
p3323
sg11
g942
sg13
VDEM
p3324
sg15
VHI
p3325
ssS'NELSON, BILL'
p3326
(dp3327
g5
VNELSON, BILL
p3328
sg7
VS
p3329
sg9
V00
p3330
sg11
S'S8FL00166'
p3331
sg13
VDEM
p3332
sg15
VFL
p3333
ssS'ALTSCHULER, RANDY'
p3334
(dp3335
g5
VALTSCHULER, RANDOLPH MR.
p3336
sg7
VH
p3337
sg9
V01
p3338
sg11
S'H0NY01129'
p3339
sg13
VREP
p3340
sg15
VNY
p3341
ssS'BARACK, OBAMA'
p3342
(dp3343
g5
VOBAMA, BARACK
p3344
sg7
VP
p3345
sg9
V00
p3346
sg11
S'P80003338'
p3347
sg13
VDEM
p3348
sg15
VUS
p3349
sss.